
isr.elf:     file format elf32-bigmips


Disassembly of section .text:

c0000000 <_start>:
c0000000:	401a6800 	mfc0	k0,c0_cause
c0000004:	401b6000 	mfc0	k1,c0_sr
c0000008:	00000000 	nop
c000000c:	337bfc00 	andi	k1,k1,0xfc00
c0000010:	035bd024 	and	k0,k0,k1
c0000014:	335b8000 	andi	k1,k0,0x8000
c0000018:	17600009 	bnez	k1,c0000040 <timer_ISR>
c000001c:	00000000 	nop
c0000020:	335b0800 	andi	k1,k0,0x800
c0000024:	1760004a 	bnez	k1,c0000150 <UART_TX>
c0000028:	00000000 	nop
c000002c:	335b4000 	andi	k1,k0,0x4000
c0000030:	17600070 	bnez	k1,c00001f4 <RTC_ISR>
c0000034:	00000000 	nop
c0000038:	08000089 	j	c0000224 <done>
c000003c:	00000000 	nop

c0000040 <timer_ISR>:
c0000040:	401b6800 	mfc0	k1,c0_cause
c0000044:	00000000 	nop
c0000048:	337b7fff 	andi	k1,k1,0x7fff
c000004c:	409b6800 	mtc0	k1,c0_cause
c0000050:	00000000 	nop
c0000054:	401b5800 	mfc0	k1,$11
c0000058:	241a1000 	li	k0,4096
c000005c:	035bd021 	addu	k0,k0,k1
c0000060:	409a5800 	mtc0	k0,$11
c0000064:	3c1a1000 	lui	k0,0x1000
c0000068:	375a00b0 	ori	k0,k0,0xb0
c000006c:	8f5b0000 	lw	k1,0(k0)
c0000070:	00000000 	nop
c0000074:	277b0001 	addiu	k1,k1,1
c0000078:	af5b0000 	sw	k1,0(k0)
c000007c:	241a003c 	li	k0,60
c0000080:	175b000c 	bne	k0,k1,c00000b4 <print_time>
c0000084:	00000000 	nop
c0000088:	0000d821 	move	k1,zero
c000008c:	3c1a1000 	lui	k0,0x1000
c0000090:	375a00b0 	ori	k0,k0,0xb0
c0000094:	af5b0000 	sw	k1,0(k0)
c0000098:	3c1a1000 	lui	k0,0x1000
c000009c:	375a00b4 	ori	k0,k0,0xb4
c00000a0:	8f5b0000 	lw	k1,0(k0)
c00000a4:	00000000 	nop
c00000a8:	277b0001 	addiu	k1,k1,1
c00000ac:	0800002d 	j	c00000b4 <print_time>
c00000b0:	af5b0000 	sw	k1,0(k0)

c00000b4 <print_time>:
c00000b4:	3c1a1000 	lui	k0,0x1000
c00000b8:	375a00c8 	ori	k0,k0,0xc8
c00000bc:	8f5b0000 	lw	k1,0(k0)
c00000c0:	241a0001 	li	k0,1
c00000c4:	175b0057 	bne	k0,k1,c0000224 <done>
c00000c8:	00000000 	nop
c00000cc:	3c1a1000 	lui	k0,0x1000
c00000d0:	375a00b4 	ori	k0,k0,0xb4
c00000d4:	8f5b0000 	lw	k1,0(k0)
c00000d8:	241a00f0 	li	k0,240
c00000dc:	037ad825 	or	k1,k1,k0
c00000e0:	001bd902 	srl	k1,k1,0x4
c00000e4:	3c1a1000 	lui	k0,0x1000
c00000e8:	375a00b8 	ori	k0,k0,0xb8
c00000ec:	0800003f 	j	c00000fc <send_byte>
c00000f0:	af5b0000 	sw	k1,0(k0)

c00000f4 <back>:
c00000f4:	08000054 	j	c0000150 <UART_TX>
c00000f8:	00000000 	nop

c00000fc <send_byte>:
c00000fc:	3c1a1000 	lui	k0,0x1000
c0000100:	375a00d0 	ori	k0,k0,0xd0
c0000104:	8f5b0000 	lw	k1,0(k0)
c0000108:	3c1a1000 	lui	k0,0x1000
c000010c:	375a00d8 	ori	k0,k0,0xd8
c0000110:	037ad021 	addu	k0,k1,k0
c0000114:	241b0050 	li	k1,80
c0000118:	a35b0000 	sb	k1,0(k0)
c000011c:	3c1a1000 	lui	k0,0x1000
c0000120:	375a00d0 	ori	k0,k0,0xd0
c0000124:	8f5b0000 	lw	k1,0(k0)
c0000128:	00000000 	nop
c000012c:	277b0001 	addiu	k1,k1,1
c0000130:	af5b0000 	sw	k1,0(k0)
c0000134:	241a0014 	li	k0,20
c0000138:	175bffee 	bne	k0,k1,c00000f4 <back>
c000013c:	00000000 	nop
c0000140:	3c1a1000 	lui	k0,0x1000
c0000144:	375a00d0 	ori	k0,k0,0xd0
c0000148:	0800003d 	j	c00000f4 <back>
c000014c:	af400000 	sw	zero,0(k0)

c0000150 <UART_TX>:
c0000150:	401b6800 	mfc0	k1,c0_cause
c0000154:	00000000 	nop
c0000158:	337bf7ff 	andi	k1,k1,0xf7ff
c000015c:	409b6800 	mtc0	k1,c0_cause
c0000160:	3c1a8000 	lui	k0,0x8000
c0000164:	8f5b0000 	lw	k1,0(k0)
c0000168:	00000000 	nop
c000016c:	337b0001 	andi	k1,k1,0x1
c0000170:	1360002c 	beqz	k1,c0000224 <done>
c0000174:	00000000 	nop
c0000178:	3c1a1000 	lui	k0,0x1000
c000017c:	375a00d0 	ori	k0,k0,0xd0
c0000180:	8f5a0000 	lw	k0,0(k0)
c0000184:	3c1b1000 	lui	k1,0x1000
c0000188:	377b00d4 	ori	k1,k1,0xd4
c000018c:	8f7b0000 	lw	k1,0(k1)
c0000190:	00000000 	nop
c0000194:	137a0023 	beq	k1,k0,c0000224 <done>
c0000198:	00000000 	nop
c000019c:	3c1a1000 	lui	k0,0x1000
c00001a0:	375a00d4 	ori	k0,k0,0xd4
c00001a4:	3c1b1000 	lui	k1,0x1000
c00001a8:	377b00d8 	ori	k1,k1,0xd8
c00001ac:	037ad820 	add	k1,k1,k0
c00001b0:	837a0000 	lb	k0,0(k1)
c00001b4:	3c1b8000 	lui	k1,0x8000
c00001b8:	377b0008 	ori	k1,k1,0x8
c00001bc:	af7a0000 	sw	k0,0(k1)
c00001c0:	3c1a1000 	lui	k0,0x1000
c00001c4:	375a00d4 	ori	k0,k0,0xd4
c00001c8:	8f5b0000 	lw	k1,0(k0)
c00001cc:	00000000 	nop
c00001d0:	277b0001 	addiu	k1,k1,1
c00001d4:	af5b0000 	sw	k1,0(k0)
c00001d8:	241a0014 	li	k0,20
c00001dc:	177a0011 	bne	k1,k0,c0000224 <done>
c00001e0:	00000000 	nop
c00001e4:	3c1a1000 	lui	k0,0x1000
c00001e8:	375a00d4 	ori	k0,k0,0xd4
c00001ec:	08000089 	j	c0000224 <done>
c00001f0:	af400000 	sw	zero,0(k0)

c00001f4 <RTC_ISR>:
c00001f4:	3c1a1000 	lui	k0,0x1000
c00001f8:	375a00c4 	ori	k0,k0,0xc4
c00001fc:	8f5b0000 	lw	k1,0(k0)
c0000200:	00000000 	nop
c0000204:	277b0001 	addiu	k1,k1,1
c0000208:	af5b0000 	sw	k1,0(k0)
c000020c:	401b6800 	mfc0	k1,c0_cause
c0000210:	00000000 	nop
c0000214:	337bbfff 	andi	k1,k1,0xbfff
c0000218:	409b6800 	mtc0	k1,c0_cause
c000021c:	08000089 	j	c0000224 <done>
c0000220:	00000000 	nop

c0000224 <done>:
c0000224:	401b6000 	mfc0	k1,c0_sr
c0000228:	00000000 	nop
c000022c:	377b0001 	ori	k1,k1,0x1
c0000230:	401a7000 	mfc0	k0,c0_epc
c0000234:	409b6000 	mtc0	k1,c0_sr
c0000238:	03400008 	jr	k0
c000023c:	00000000 	nop

Disassembly of section .reginfo:

00000000 <.reginfo>:
   0:	0c000000 	jal	0 <_start-0xc0000000>
   4:	00000000 	nop
	...
