
app.elf:     file format elf32-bigmips


Disassembly of section .text:

10005000 <_start>:
10005000:	3c1d1000 	lui	sp,0x1000
10005004:	0c001446 	jal	10005118 <main>
10005008:	37bdf000 	ori	sp,sp,0xf000
1000500c:	3c090100 	lui	t1,0x100
10005010:	3c0a1000 	lui	t2,0x1000
10005014:	3c111000 	lui	s1,0x1000
10005018:	3c128000 	lui	s2,0x8000
1000501c:	36520030 	ori	s2,s2,0x30
10005020:	3c138000 	lui	s3,0x8000
10005024:	36730040 	ori	s3,s3,0x40
10005028:	3c0b1040 	lui	t3,0x1040
1000502c:	3c0b1080 	lui	t3,0x1080
10005030:	ae6b0000 	sw	t3,0(s3)
10005034:	ae290000 	sw	t1,0(s1)
10005038:	ae200004 	sw	zero,4(s1)
1000503c:	ae510000 	sw	s1,0(s2)
10005040:	3c0f0100 	lui	t7,0x100
10005044:	3c118000 	lui	s1,0x8000
10005048:	36310040 	ori	s1,s1,0x40
1000504c:	3c128000 	lui	s2,0x8000
10005050:	36520030 	ori	s2,s2,0x30
10005054:	3c091040 	lui	t1,0x1040
10005058:	ae290000 	sw	t1,0(s1)
1000505c:	3c0a1000 	lui	t2,0x1000
10005060:	3c0b1000 	lui	t3,0x1000
10005064:	ad4f0000 	sw	t7,0(t2)
10005068:	254a0004 	addiu	t2,t2,4
1000506c:	3c0c0200 	lui	t4,0x200
10005070:	358cff00 	ori	t4,t4,0xff00
10005074:	3c0d00ff 	lui	t5,0xff
10005078:	35ad00ff 	ori	t5,t5,0xff
1000507c:	3c0e00ff 	lui	t6,0xff
10005080:	35ce0150 	ori	t6,t6,0x150
10005084:	ad4c0000 	sw	t4,0(t2)
10005088:	ad4d0004 	sw	t5,4(t2)
1000508c:	ad4e0008 	sw	t6,8(t2)
10005090:	00000000 	nop
10005094:	3c0c0200 	lui	t4,0x200
10005098:	358cff00 	ori	t4,t4,0xff00
1000509c:	3c0d0001 	lui	t5,0x1
100050a0:	35ad0001 	ori	t5,t5,0x1
100050a4:	3c0e0001 	lui	t6,0x1
100050a8:	35ce0150 	ori	t6,t6,0x150
100050ac:	ad4c000c 	sw	t4,12(t2)
100050b0:	ad4d0010 	sw	t5,16(t2)
100050b4:	ad4e0014 	sw	t6,20(t2)
100050b8:	00000000 	nop
100050bc:	3c0c0200 	lui	t4,0x200
100050c0:	358cff00 	ori	t4,t4,0xff00
100050c4:	3c0d0150 	lui	t5,0x150
100050c8:	35ad0150 	ori	t5,t5,0x150
100050cc:	3c0e0150 	lui	t6,0x150
100050d0:	35ce00ff 	ori	t6,t6,0xff
100050d4:	ad4c0018 	sw	t4,24(t2)
100050d8:	ad4d001c 	sw	t5,28(t2)
100050dc:	ad4e0020 	sw	t6,32(t2)
100050e0:	00000000 	nop
100050e4:	3c0c0200 	lui	t4,0x200
100050e8:	358cff00 	ori	t4,t4,0xff00
100050ec:	3c0d0150 	lui	t5,0x150
100050f0:	35ad00ff 	ori	t5,t5,0xff
100050f4:	3c0e00ff 	lui	t6,0xff
100050f8:	35ce00ff 	ori	t6,t6,0xff
100050fc:	ad4c0024 	sw	t4,36(t2)
10005100:	ad4d0028 	sw	t5,40(t2)
10005104:	ad4e002c 	sw	t6,44(t2)
10005108:	00000000 	nop
1000510c:	ad400030 	sw	zero,48(t2)
10005110:	00000000 	nop
10005114:	ae4b0000 	sw	t3,0(s2)

10005118 <main>:
10005118:	27bdffc8 	addiu	sp,sp,-56
1000511c:	afbf0034 	sw	ra,52(sp)
10005120:	afb00028 	sw	s0,40(sp)
10005124:	afb1002c 	sw	s1,44(sp)
10005128:	3c021000 	lui	v0,0x1000
1000512c:	24425eb8 	addiu	v0,v0,24248
10005130:	afa00020 	sw	zero,32(sp)
10005134:	ac400000 	sw	zero,0(v0)
10005138:	0c001715 	jal	10005c54 <init_isr>
1000513c:	00000000 	nop
10005140:	3c028000 	lui	v0,0x8000
10005144:	34420050 	ori	v0,v0,0x50
10005148:	8c420000 	lw	v0,0(v0)
1000514c:	00000000 	nop
10005150:	30420001 	andi	v0,v0,0x1
10005154:	14400005 	bnez	v0,1000516c <main+0x54>
10005158:	00000000 	nop
	...
10005164:	08001450 	j	10005140 <main+0x28>
10005168:	00000000 	nop
1000516c:	3c028000 	lui	v0,0x8000
10005170:	34420050 	ori	v0,v0,0x50
10005174:	8c420000 	lw	v0,0(v0)
10005178:	00000000 	nop
1000517c:	30420001 	andi	v0,v0,0x1
10005180:	10400005 	beqz	v0,10005198 <main+0x80>
10005184:	00000000 	nop
	...
10005190:	0800145b 	j	1000516c <main+0x54>
10005194:	00000000 	nop
10005198:	3c021000 	lui	v0,0x1000
1000519c:	3c031000 	lui	v1,0x1000
100051a0:	24040190 	li	a0,400
100051a4:	24425ebc 	addiu	v0,v0,24252
100051a8:	3c058000 	lui	a1,0x8000
100051ac:	2406012c 	li	a2,300
100051b0:	24635ec8 	addiu	v1,v1,24264
100051b4:	ac440000 	sw	a0,0(v0)
100051b8:	34a20050 	ori	v0,a1,0x50
100051bc:	ac660000 	sw	a2,0(v1)
100051c0:	8c420000 	lw	v0,0(v0)
100051c4:	00000000 	nop
100051c8:	30420001 	andi	v0,v0,0x1
100051cc:	afa20024 	sw	v0,36(sp)
100051d0:	3c028000 	lui	v0,0x8000
100051d4:	34420050 	ori	v0,v0,0x50
100051d8:	8c420000 	lw	v0,0(v0)
100051dc:	00000000 	nop
100051e0:	30420001 	andi	v0,v0,0x1
100051e4:	10400024 	beqz	v0,10005278 <main+0x160>
100051e8:	00000000 	nop
100051ec:	3c021001 	lui	v0,0x1001
100051f0:	3c031000 	lui	v1,0x1000
100051f4:	34420000 	ori	v0,v0,0x0
100051f8:	24635ed0 	addiu	v1,v1,24272
100051fc:	ac620000 	sw	v0,0(v1)
10005200:	3c0200ff 	lui	v0,0xff
10005204:	3c031000 	lui	v1,0x1000
10005208:	3c101000 	lui	s0,0x1000
1000520c:	3444ffff 	ori	a0,v0,0xffff
10005210:	24715ebc 	addiu	s1,v1,24252
10005214:	0c0014d4 	jal	10005350 <fill_frame>
10005218:	00000000 	nop
1000521c:	26025ec8 	addiu	v0,s0,24264
10005220:	8e240000 	lw	a0,0(s1)
10005224:	00000000 	nop
10005228:	8c450000 	lw	a1,0(v0)
1000522c:	00000000 	nop
10005230:	3c021000 	lui	v0,0x1000
10005234:	24505eb8 	addiu	s0,v0,24248
10005238:	0c001518 	jal	10005460 <game>
1000523c:	00000000 	nop
10005240:	8e020000 	lw	v0,0(s0)
10005244:	00000000 	nop
10005248:	14400003 	bnez	v0,10005258 <main+0x140>
1000524c:	00000000 	nop
10005250:	0c001518 	jal	10005460 <game>
10005254:	00000000 	nop
10005258:	3c021000 	lui	v0,0x1000
1000525c:	24425ed0 	addiu	v0,v0,24272
10005260:	3c038000 	lui	v1,0x8000
10005264:	8c420000 	lw	v0,0(v0)
10005268:	00000000 	nop
1000526c:	3c041040 	lui	a0,0x1040
10005270:	080014bf 	j	100052fc <main+0x1e4>
10005274:	00000000 	nop
10005278:	3c021001 	lui	v0,0x1001
1000527c:	3c031000 	lui	v1,0x1000
10005280:	34420000 	ori	v0,v0,0x0
10005284:	24635ed0 	addiu	v1,v1,24272
10005288:	ac620000 	sw	v0,0(v1)
1000528c:	3c0200ff 	lui	v0,0xff
10005290:	3c031000 	lui	v1,0x1000
10005294:	3c101000 	lui	s0,0x1000
10005298:	3444ffff 	ori	a0,v0,0xffff
1000529c:	24715ebc 	addiu	s1,v1,24252
100052a0:	0c0014d4 	jal	10005350 <fill_frame>
100052a4:	00000000 	nop
100052a8:	26025ec8 	addiu	v0,s0,24264
100052ac:	8e240000 	lw	a0,0(s1)
100052b0:	00000000 	nop
100052b4:	8c450000 	lw	a1,0(v0)
100052b8:	00000000 	nop
100052bc:	3c021000 	lui	v0,0x1000
100052c0:	24505eb8 	addiu	s0,v0,24248
100052c4:	0c001518 	jal	10005460 <game>
100052c8:	00000000 	nop
100052cc:	8e020000 	lw	v0,0(s0)
100052d0:	00000000 	nop
100052d4:	14400003 	bnez	v0,100052e4 <main+0x1cc>
100052d8:	00000000 	nop
100052dc:	0c001518 	jal	10005460 <game>
100052e0:	00000000 	nop
100052e4:	3c021000 	lui	v0,0x1000
100052e8:	24425ed0 	addiu	v0,v0,24272
100052ec:	3c038000 	lui	v1,0x8000
100052f0:	8c420000 	lw	v0,0(v0)
100052f4:	00000000 	nop
100052f8:	3c041080 	lui	a0,0x1080
100052fc:	3c051001 	lui	a1,0x1001
10005300:	34840000 	ori	a0,a0,0x0
10005304:	34660040 	ori	a2,v1,0x40
10005308:	ac400000 	sw	zero,0(v0)
1000530c:	34a20000 	ori	v0,a1,0x0
10005310:	34630030 	ori	v1,v1,0x30
10005314:	acc40000 	sw	a0,0(a2)
10005318:	ac620000 	sw	v0,0(v1)
1000531c:	3c028000 	lui	v0,0x8000
10005320:	8fa30024 	lw	v1,36(sp)
10005324:	00000000 	nop
10005328:	34420050 	ori	v0,v0,0x50
1000532c:	8c420000 	lw	v0,0(v0)
10005330:	00000000 	nop
10005334:	30420001 	andi	v0,v0,0x1
10005338:	1062fff8 	beq	v1,v0,1000531c <main+0x204>
1000533c:	00000000 	nop
10005340:	3c028000 	lui	v0,0x8000
10005344:	34420050 	ori	v0,v0,0x50
10005348:	08001470 	j	100051c0 <main+0xa8>
1000534c:	00000000 	nop

10005350 <fill_frame>:
10005350:	27bdffe8 	addiu	sp,sp,-24
10005354:	3c0200ff 	lui	v0,0xff
10005358:	3c031000 	lui	v1,0x1000
1000535c:	3c050100 	lui	a1,0x100
10005360:	3442ffff 	ori	v0,v0,0xffff
10005364:	24635ed0 	addiu	v1,v1,24272
10005368:	afa40010 	sw	a0,16(sp)
1000536c:	00821024 	and	v0,a0,v0
10005370:	34a40000 	ori	a0,a1,0x0
10005374:	00441025 	or	v0,v0,a0
10005378:	8c640000 	lw	a0,0(v1)
1000537c:	00000000 	nop
10005380:	ac820000 	sw	v0,0(a0)
10005384:	8c620000 	lw	v0,0(v1)
10005388:	00000000 	nop
1000538c:	24420004 	addiu	v0,v0,4
10005390:	ac620000 	sw	v0,0(v1)
10005394:	27bd0018 	addiu	sp,sp,24
10005398:	03e00008 	jr	ra
1000539c:	00000000 	nop

100053a0 <draw_line>:
100053a0:	27bdffd8 	addiu	sp,sp,-40
100053a4:	afa40014 	sw	a0,20(sp)
100053a8:	afa50018 	sw	a1,24(sp)
100053ac:	3c0200ff 	lui	v0,0xff
100053b0:	afa6001c 	sw	a2,28(sp)
100053b4:	3c031000 	lui	v1,0x1000
100053b8:	3c040200 	lui	a0,0x200
100053bc:	3442ffff 	ori	v0,v0,0xffff
100053c0:	8fa50038 	lw	a1,56(sp)
100053c4:	00000000 	nop
100053c8:	afa70020 	sw	a3,32(sp)
100053cc:	24635ed0 	addiu	v1,v1,24272
100053d0:	afa50024 	sw	a1,36(sp)
100053d4:	00a21024 	and	v0,a1,v0
100053d8:	34840000 	ori	a0,a0,0x0
100053dc:	00441025 	or	v0,v0,a0
100053e0:	8c640000 	lw	a0,0(v1)
100053e4:	00000000 	nop
100053e8:	ac820000 	sw	v0,0(a0)
100053ec:	8c620000 	lw	v0,0(v1)
100053f0:	00000000 	nop
100053f4:	24440004 	addiu	a0,v0,4
100053f8:	ac640000 	sw	a0,0(v1)
100053fc:	8fa40014 	lw	a0,20(sp)
10005400:	00000000 	nop
10005404:	8fa50018 	lw	a1,24(sp)
10005408:	00000000 	nop
1000540c:	00042400 	sll	a0,a0,0x10
10005410:	00852021 	addu	a0,a0,a1
10005414:	ac440004 	sw	a0,4(v0)
10005418:	8c620000 	lw	v0,0(v1)
1000541c:	00000000 	nop
10005420:	24440004 	addiu	a0,v0,4
10005424:	ac640000 	sw	a0,0(v1)
10005428:	8fa4001c 	lw	a0,28(sp)
1000542c:	00000000 	nop
10005430:	8fa50020 	lw	a1,32(sp)
10005434:	00000000 	nop
10005438:	00042400 	sll	a0,a0,0x10
1000543c:	00852021 	addu	a0,a0,a1
10005440:	ac440004 	sw	a0,4(v0)
10005444:	8c620000 	lw	v0,0(v1)
10005448:	00000000 	nop
1000544c:	24420004 	addiu	v0,v0,4
10005450:	ac620000 	sw	v0,0(v1)
10005454:	27bd0028 	addiu	sp,sp,40
10005458:	03e00008 	jr	ra
1000545c:	00000000 	nop

10005460 <game>:
10005460:	27bdffb8 	addiu	sp,sp,-72
10005464:	afbf0040 	sw	ra,64(sp)
10005468:	afb00038 	sw	s0,56(sp)
1000546c:	afa40024 	sw	a0,36(sp)
10005470:	24020032 	li	v0,50
10005474:	afa50028 	sw	a1,40(sp)
10005478:	afa2002c 	sw	v0,44(sp)
1000547c:	afa20030 	sw	v0,48(sp)
10005480:	8fa2002c 	lw	v0,44(sp)
10005484:	00000000 	nop
10005488:	8fa30024 	lw	v1,36(sp)
1000548c:	00000000 	nop
10005490:	000227c2 	srl	a0,v0,0x1f
10005494:	8fa50028 	lw	a1,40(sp)
10005498:	00000000 	nop
1000549c:	3c0600ff 	lui	a2,0xff
100054a0:	00441021 	addu	v0,v0,a0
100054a4:	00021043 	sra	v0,v0,0x1
100054a8:	2464ffff 	addiu	a0,v1,-1
100054ac:	34d00000 	ori	s0,a2,0x0
100054b0:	afb00010 	sw	s0,16(sp)
100054b4:	00822023 	subu	a0,a0,v0
100054b8:	00623021 	addu	a2,v1,v0
100054bc:	00053821 	addu	a3,zero,a1
100054c0:	0c0014e8 	jal	100053a0 <draw_line>
100054c4:	00000000 	nop
100054c8:	8fa20030 	lw	v0,48(sp)
100054cc:	00000000 	nop
100054d0:	8fa30028 	lw	v1,40(sp)
100054d4:	00000000 	nop
100054d8:	8fa40024 	lw	a0,36(sp)
100054dc:	00000000 	nop
100054e0:	00022fc2 	srl	a1,v0,0x1f
100054e4:	00451021 	addu	v0,v0,a1
100054e8:	00021043 	sra	v0,v0,0x1
100054ec:	2465ffff 	addiu	a1,v1,-1
100054f0:	afb00010 	sw	s0,16(sp)
100054f4:	00a22823 	subu	a1,a1,v0
100054f8:	00623821 	addu	a3,v1,v0
100054fc:	00043021 	addu	a2,zero,a0
10005500:	0c0014e8 	jal	100053a0 <draw_line>
10005504:	00000000 	nop
10005508:	8fb00038 	lw	s0,56(sp)
1000550c:	00000000 	nop
10005510:	8fbf0040 	lw	ra,64(sp)
10005514:	00000000 	nop
10005518:	27bd0048 	addiu	sp,sp,72
1000551c:	03e00008 	jr	ra
10005520:	00000000 	nop

10005524 <drawborder>:
10005524:	27bdffd8 	addiu	sp,sp,-40
10005528:	afbf0024 	sw	ra,36(sp)
1000552c:	afb00010 	sw	s0,16(sp)
10005530:	afb10014 	sw	s1,20(sp)
10005534:	afb20018 	sw	s2,24(sp)
10005538:	afb3001c 	sw	s3,28(sp)
1000553c:	afa00010 	sw	zero,16(sp)
10005540:	2410024e 	li	s0,590
10005544:	2411000a 	li	s1,10
10005548:	00112021 	addu	a0,zero,s1
1000554c:	00112821 	addu	a1,zero,s1
10005550:	00113021 	addu	a2,zero,s1
10005554:	00103821 	addu	a3,zero,s0
10005558:	0c0014e8 	jal	100053a0 <draw_line>
1000555c:	00000000 	nop
10005560:	afa00010 	sw	zero,16(sp)
10005564:	2412000b 	li	s2,11
10005568:	00122021 	addu	a0,zero,s2
1000556c:	00112821 	addu	a1,zero,s1
10005570:	00123021 	addu	a2,zero,s2
10005574:	00103821 	addu	a3,zero,s0
10005578:	0c0014e8 	jal	100053a0 <draw_line>
1000557c:	00000000 	nop
10005580:	afa00010 	sw	zero,16(sp)
10005584:	24130316 	li	s3,790
10005588:	00112021 	addu	a0,zero,s1
1000558c:	00102821 	addu	a1,zero,s0
10005590:	00133021 	addu	a2,zero,s3
10005594:	00103821 	addu	a3,zero,s0
10005598:	0c0014e8 	jal	100053a0 <draw_line>
1000559c:	00000000 	nop
100055a0:	afa00010 	sw	zero,16(sp)
100055a4:	2405024d 	li	a1,589
100055a8:	00112021 	addu	a0,zero,s1
100055ac:	00133021 	addu	a2,zero,s3
100055b0:	00053821 	addu	a3,zero,a1
100055b4:	0c0014e8 	jal	100053a0 <draw_line>
100055b8:	00000000 	nop
100055bc:	afa00010 	sw	zero,16(sp)
100055c0:	00132021 	addu	a0,zero,s3
100055c4:	00102821 	addu	a1,zero,s0
100055c8:	00133021 	addu	a2,zero,s3
100055cc:	00113821 	addu	a3,zero,s1
100055d0:	0c0014e8 	jal	100053a0 <draw_line>
100055d4:	00000000 	nop
100055d8:	afa00010 	sw	zero,16(sp)
100055dc:	24040315 	li	a0,789
100055e0:	00102821 	addu	a1,zero,s0
100055e4:	00043021 	addu	a2,zero,a0
100055e8:	00113821 	addu	a3,zero,s1
100055ec:	0c0014e8 	jal	100053a0 <draw_line>
100055f0:	00000000 	nop
100055f4:	afa00010 	sw	zero,16(sp)
100055f8:	00112021 	addu	a0,zero,s1
100055fc:	00112821 	addu	a1,zero,s1
10005600:	00133021 	addu	a2,zero,s3
10005604:	00113821 	addu	a3,zero,s1
10005608:	0c0014e8 	jal	100053a0 <draw_line>
1000560c:	00000000 	nop
10005610:	afa00010 	sw	zero,16(sp)
10005614:	00112021 	addu	a0,zero,s1
10005618:	00122821 	addu	a1,zero,s2
1000561c:	00133021 	addu	a2,zero,s3
10005620:	00123821 	addu	a3,zero,s2
10005624:	0c0014e8 	jal	100053a0 <draw_line>
10005628:	00000000 	nop
1000562c:	8fb3001c 	lw	s3,28(sp)
10005630:	00000000 	nop
10005634:	8fb20018 	lw	s2,24(sp)
10005638:	00000000 	nop
1000563c:	8fb10014 	lw	s1,20(sp)
10005640:	00000000 	nop
10005644:	8fb00010 	lw	s0,16(sp)
10005648:	00000000 	nop
1000564c:	8fbf0024 	lw	ra,36(sp)
10005650:	00000000 	nop
10005654:	27bd0028 	addiu	sp,sp,40
10005658:	03e00008 	jr	ra
1000565c:	00000000 	nop

10005660 <check_state>:
10005660:	27bdffd8 	addiu	sp,sp,-40
10005664:	afbf0024 	sw	ra,36(sp)
10005668:	afb00010 	sw	s0,16(sp)
1000566c:	afb10014 	sw	s1,20(sp)
10005670:	afb20018 	sw	s2,24(sp)
10005674:	afb3001c 	sw	s3,28(sp)
10005678:	3c021f00 	lui	v0,0x1f00
1000567c:	344200c0 	ori	v0,v0,0xc0
10005680:	8c420000 	lw	v0,0(v0)
10005684:	00000000 	nop
10005688:	24030077 	li	v1,119
1000568c:	14430015 	bne	v0,v1,100056e4 <check_state+0x84>
10005690:	00000000 	nop
10005694:	24040077 	li	a0,119
10005698:	0c0016ae 	jal	10005ab8 <send_byte>
1000569c:	00000000 	nop
100056a0:	2404000d 	li	a0,13
100056a4:	0c0016ae 	jal	10005ab8 <send_byte>
100056a8:	00000000 	nop
100056ac:	3c021000 	lui	v0,0x1000
100056b0:	2404000a 	li	a0,10
100056b4:	24505ec8 	addiu	s0,v0,24264
100056b8:	0c0016ae 	jal	10005ab8 <send_byte>
100056bc:	00000000 	nop
100056c0:	8e020000 	lw	v0,0(s0)
100056c4:	00000000 	nop
100056c8:	3c031f00 	lui	v1,0x1f00
100056cc:	2442fff6 	addiu	v0,v0,-10
100056d0:	346300c0 	ori	v1,v1,0xc0
100056d4:	ae020000 	sw	v0,0(s0)
100056d8:	ac600000 	sw	zero,0(v1)
100056dc:	080016a1 	j	10005a84 <check_state+0x424>
100056e0:	00000000 	nop
100056e4:	3c021f00 	lui	v0,0x1f00
100056e8:	344200c0 	ori	v0,v0,0xc0
100056ec:	8c420000 	lw	v0,0(v0)
100056f0:	00000000 	nop
100056f4:	24030061 	li	v1,97
100056f8:	1443000c 	bne	v0,v1,1000572c <check_state+0xcc>
100056fc:	00000000 	nop
10005700:	24040061 	li	a0,97
10005704:	0c0016ae 	jal	10005ab8 <send_byte>
10005708:	00000000 	nop
1000570c:	2404000d 	li	a0,13
10005710:	0c0016ae 	jal	10005ab8 <send_byte>
10005714:	00000000 	nop
10005718:	3c021000 	lui	v0,0x1000
1000571c:	2404000a 	li	a0,10
10005720:	24505ebc 	addiu	s0,v0,24252
10005724:	080015ae 	j	100056b8 <check_state+0x58>
10005728:	00000000 	nop
1000572c:	3c021f00 	lui	v0,0x1f00
10005730:	344200c0 	ori	v0,v0,0xc0
10005734:	8c420000 	lw	v0,0(v0)
10005738:	00000000 	nop
1000573c:	24030073 	li	v1,115
10005740:	14430012 	bne	v0,v1,1000578c <check_state+0x12c>
10005744:	00000000 	nop
10005748:	24040073 	li	a0,115
1000574c:	0c0016ae 	jal	10005ab8 <send_byte>
10005750:	00000000 	nop
10005754:	2404000d 	li	a0,13
10005758:	0c0016ae 	jal	10005ab8 <send_byte>
1000575c:	00000000 	nop
10005760:	3c021000 	lui	v0,0x1000
10005764:	2404000a 	li	a0,10
10005768:	24505ec8 	addiu	s0,v0,24264
1000576c:	0c0016ae 	jal	10005ab8 <send_byte>
10005770:	00000000 	nop
10005774:	8e020000 	lw	v0,0(s0)
10005778:	00000000 	nop
1000577c:	3c031f00 	lui	v1,0x1f00
10005780:	2442000a 	addiu	v0,v0,10
10005784:	080015b4 	j	100056d0 <check_state+0x70>
10005788:	00000000 	nop
1000578c:	3c021f00 	lui	v0,0x1f00
10005790:	344200c0 	ori	v0,v0,0xc0
10005794:	8c420000 	lw	v0,0(v0)
10005798:	00000000 	nop
1000579c:	24030064 	li	v1,100
100057a0:	1443000c 	bne	v0,v1,100057d4 <check_state+0x174>
100057a4:	00000000 	nop
100057a8:	24040064 	li	a0,100
100057ac:	0c0016ae 	jal	10005ab8 <send_byte>
100057b0:	00000000 	nop
100057b4:	2404000d 	li	a0,13
100057b8:	0c0016ae 	jal	10005ab8 <send_byte>
100057bc:	00000000 	nop
100057c0:	3c021000 	lui	v0,0x1000
100057c4:	2404000a 	li	a0,10
100057c8:	24505ebc 	addiu	s0,v0,24252
100057cc:	080015db 	j	1000576c <check_state+0x10c>
100057d0:	00000000 	nop
100057d4:	3c021f00 	lui	v0,0x1f00
100057d8:	344200c0 	ori	v0,v0,0xc0
100057dc:	8c420000 	lw	v0,0(v0)
100057e0:	00000000 	nop
100057e4:	2403006e 	li	v1,110
100057e8:	1443000f 	bne	v0,v1,10005828 <check_state+0x1c8>
100057ec:	00000000 	nop
100057f0:	2404006e 	li	a0,110
100057f4:	0c0016ae 	jal	10005ab8 <send_byte>
100057f8:	00000000 	nop
100057fc:	2404000d 	li	a0,13
10005800:	0c0016ae 	jal	10005ab8 <send_byte>
10005804:	00000000 	nop
10005808:	3c021f00 	lui	v0,0x1f00
1000580c:	2404000a 	li	a0,10
10005810:	345000c0 	ori	s0,v0,0xc0
10005814:	0c0016ae 	jal	10005ab8 <send_byte>
10005818:	00000000 	nop
1000581c:	ae000000 	sw	zero,0(s0)
10005820:	080016a1 	j	10005a84 <check_state+0x424>
10005824:	00000000 	nop
10005828:	3c021f00 	lui	v0,0x1f00
1000582c:	344200c0 	ori	v0,v0,0xc0
10005830:	8c420000 	lw	v0,0(v0)
10005834:	00000000 	nop
10005838:	24030072 	li	v1,114
1000583c:	14430028 	bne	v0,v1,100058e0 <check_state+0x280>
10005840:	00000000 	nop
10005844:	24100072 	li	s0,114
10005848:	00102021 	addu	a0,zero,s0
1000584c:	0c0016ae 	jal	10005ab8 <send_byte>
10005850:	00000000 	nop
10005854:	2404000d 	li	a0,13
10005858:	0c0016ae 	jal	10005ab8 <send_byte>
1000585c:	00000000 	nop
10005860:	3c111f00 	lui	s1,0x1f00
10005864:	2404000a 	li	a0,10
10005868:	363200bc 	ori	s2,s1,0xbc
1000586c:	0c0016ae 	jal	10005ab8 <send_byte>
10005870:	00000000 	nop
10005874:	3c021000 	lui	v0,0x1000
10005878:	8e430000 	lw	v1,0(s2)
1000587c:	00000000 	nop
10005880:	306300ff 	andi	v1,v1,0xff
10005884:	24535ec0 	addiu	s3,v0,24256
10005888:	ae630000 	sw	v1,0(s3)
1000588c:	0c00176c 	jal	10005db0 <r100M>
10005890:	00000000 	nop
10005894:	3c021000 	lui	v0,0x1000
10005898:	8e430000 	lw	v1,0(s2)
1000589c:	00000000 	nop
100058a0:	306300ff 	andi	v1,v1,0xff
100058a4:	24425ec4 	addiu	v0,v0,24260
100058a8:	ac430000 	sw	v1,0(v0)
100058ac:	3c021000 	lui	v0,0x1000
100058b0:	8e640000 	lw	a0,0(s3)
100058b4:	00000000 	nop
100058b8:	00641823 	subu	v1,v1,a0
100058bc:	24425ecc 	addiu	v0,v0,24268
100058c0:	ac430000 	sw	v1,0(v0)
100058c4:	363100c0 	ori	s1,s1,0xc0
100058c8:	00102021 	addu	a0,zero,s0
100058cc:	0c0016ce 	jal	10005b38 <send_time>
100058d0:	00000000 	nop
100058d4:	ae200000 	sw	zero,0(s1)
100058d8:	080016a1 	j	10005a84 <check_state+0x424>
100058dc:	00000000 	nop
100058e0:	3c021f00 	lui	v0,0x1f00
100058e4:	344200c0 	ori	v0,v0,0xc0
100058e8:	8c420000 	lw	v0,0(v0)
100058ec:	00000000 	nop
100058f0:	24030052 	li	v1,82
100058f4:	14430017 	bne	v0,v1,10005954 <check_state+0x2f4>
100058f8:	00000000 	nop
100058fc:	24100052 	li	s0,82
10005900:	00102021 	addu	a0,zero,s0
10005904:	0c0016ae 	jal	10005ab8 <send_byte>
10005908:	00000000 	nop
1000590c:	2404000d 	li	a0,13
10005910:	0c0016ae 	jal	10005ab8 <send_byte>
10005914:	00000000 	nop
10005918:	3c111f00 	lui	s1,0x1f00
1000591c:	2404000a 	li	a0,10
10005920:	363200bc 	ori	s2,s1,0xbc
10005924:	0c0016ae 	jal	10005ab8 <send_byte>
10005928:	00000000 	nop
1000592c:	3c021000 	lui	v0,0x1000
10005930:	8e430000 	lw	v1,0(s2)
10005934:	00000000 	nop
10005938:	306300ff 	andi	v1,v1,0xff
1000593c:	24535ec0 	addiu	s3,v0,24256
10005940:	ae630000 	sw	v1,0(s3)
10005944:	0c001776 	jal	10005dd8 <R100M>
10005948:	00000000 	nop
1000594c:	08001625 	j	10005894 <check_state+0x234>
10005950:	00000000 	nop
10005954:	3c021f00 	lui	v0,0x1f00
10005958:	344200c0 	ori	v0,v0,0xc0
1000595c:	8c420000 	lw	v0,0(v0)
10005960:	00000000 	nop
10005964:	24030076 	li	v1,118
10005968:	14430017 	bne	v0,v1,100059c8 <check_state+0x368>
1000596c:	00000000 	nop
10005970:	24100076 	li	s0,118
10005974:	00102021 	addu	a0,zero,s0
10005978:	0c0016ae 	jal	10005ab8 <send_byte>
1000597c:	00000000 	nop
10005980:	2404000d 	li	a0,13
10005984:	0c0016ae 	jal	10005ab8 <send_byte>
10005988:	00000000 	nop
1000598c:	3c111f00 	lui	s1,0x1f00
10005990:	2404000a 	li	a0,10
10005994:	363200bc 	ori	s2,s1,0xbc
10005998:	0c0016ae 	jal	10005ab8 <send_byte>
1000599c:	00000000 	nop
100059a0:	3c021000 	lui	v0,0x1000
100059a4:	8e430000 	lw	v1,0(s2)
100059a8:	00000000 	nop
100059ac:	306300ff 	andi	v1,v1,0xff
100059b0:	24535ec0 	addiu	s3,v0,24256
100059b4:	ae630000 	sw	v1,0(s3)
100059b8:	0c001789 	jal	10005e24 <v100M>
100059bc:	00000000 	nop
100059c0:	08001625 	j	10005894 <check_state+0x234>
100059c4:	00000000 	nop
100059c8:	3c021f00 	lui	v0,0x1f00
100059cc:	344200c0 	ori	v0,v0,0xc0
100059d0:	8c420000 	lw	v0,0(v0)
100059d4:	00000000 	nop
100059d8:	24030056 	li	v1,86
100059dc:	14430017 	bne	v0,v1,10005a3c <check_state+0x3dc>
100059e0:	00000000 	nop
100059e4:	24100056 	li	s0,86
100059e8:	00102021 	addu	a0,zero,s0
100059ec:	0c0016ae 	jal	10005ab8 <send_byte>
100059f0:	00000000 	nop
100059f4:	2404000d 	li	a0,13
100059f8:	0c0016ae 	jal	10005ab8 <send_byte>
100059fc:	00000000 	nop
10005a00:	3c111f00 	lui	s1,0x1f00
10005a04:	2404000a 	li	a0,10
10005a08:	363200bc 	ori	s2,s1,0xbc
10005a0c:	0c0016ae 	jal	10005ab8 <send_byte>
10005a10:	00000000 	nop
10005a14:	3c021000 	lui	v0,0x1000
10005a18:	8e430000 	lw	v1,0(s2)
10005a1c:	00000000 	nop
10005a20:	306300ff 	andi	v1,v1,0xff
10005a24:	24535ec0 	addiu	s3,v0,24256
10005a28:	ae630000 	sw	v1,0(s3)
10005a2c:	0c001799 	jal	10005e64 <V100M>
10005a30:	00000000 	nop
10005a34:	08001625 	j	10005894 <check_state+0x234>
10005a38:	00000000 	nop
10005a3c:	3c021f00 	lui	v0,0x1f00
10005a40:	344200c0 	ori	v0,v0,0xc0
10005a44:	8c420000 	lw	v0,0(v0)
10005a48:	00000000 	nop
10005a4c:	24030020 	li	v1,32
10005a50:	1443000c 	bne	v0,v1,10005a84 <check_state+0x424>
10005a54:	00000000 	nop
10005a58:	3c021000 	lui	v0,0x1000
10005a5c:	24425eb8 	addiu	v0,v0,24248
10005a60:	24030000 	li	v1,0
10005a64:	8c440000 	lw	a0,0(v0)
10005a68:	00000000 	nop
10005a6c:	00831826 	xor	v1,a0,v1
10005a70:	3c041f00 	lui	a0,0x1f00
10005a74:	2c630001 	sltiu	v1,v1,1
10005a78:	348400c0 	ori	a0,a0,0xc0
10005a7c:	ac430000 	sw	v1,0(v0)
10005a80:	ac800000 	sw	zero,0(a0)
10005a84:	8fb3001c 	lw	s3,28(sp)
10005a88:	00000000 	nop
10005a8c:	8fb20018 	lw	s2,24(sp)
10005a90:	00000000 	nop
10005a94:	8fb10014 	lw	s1,20(sp)
10005a98:	00000000 	nop
10005a9c:	8fb00010 	lw	s0,16(sp)
10005aa0:	00000000 	nop
10005aa4:	8fbf0024 	lw	ra,36(sp)
10005aa8:	00000000 	nop
10005aac:	27bd0028 	addiu	sp,sp,40
10005ab0:	03e00008 	jr	ra
10005ab4:	00000000 	nop

10005ab8 <send_byte>:
10005ab8:	27bdffe8 	addiu	sp,sp,-24
10005abc:	a3a40010 	sb	a0,16(sp)
10005ac0:	3c081f00 	lui	t0,0x1f00
10005ac4:	350800d0 	ori	t0,t0,0xd0
10005ac8:	8d090000 	lw	t1,0(t0)
10005acc:	312900ff 	andi	t1,t1,0xff
10005ad0:	00000000 	nop
10005ad4:	3c081f00 	lui	t0,0x1f00
10005ad8:	350800d8 	ori	t0,t0,0xd8
10005adc:	01284021 	addu	t0,t1,t0
10005ae0:	a1040000 	sb	a0,0(t0)
10005ae4:	00000000 	nop
10005ae8:	3c081f00 	lui	t0,0x1f00
10005aec:	350800d0 	ori	t0,t0,0xd0
10005af0:	8d090000 	lw	t1,0(t0)
10005af4:	312900ff 	andi	t1,t1,0xff
10005af8:	00000000 	nop
10005afc:	25290001 	addiu	t1,t1,1
10005b00:	ad090000 	sw	t1,0(t0)
10005b04:	00000000 	nop
10005b08:	240800ff 	li	t0,255
10005b0c:	0109482a 	slt	t1,t0,t1
10005b10:	11200005 	beqz	t1,10005b28 <xyz>
10005b14:	00000000 	nop
10005b18:	3c081f00 	lui	t0,0x1f00
10005b1c:	350800d0 	ori	t0,t0,0xd0
10005b20:	ad000000 	sw	zero,0(t0)
10005b24:	00000000 	nop

10005b28 <xyz>:
10005b28:	00000000 	nop
10005b2c:	27bd0018 	addiu	sp,sp,24
10005b30:	03e00008 	jr	ra
10005b34:	00000000 	nop

10005b38 <send_time>:
10005b38:	27bdffb8 	addiu	sp,sp,-72
10005b3c:	afbf0040 	sw	ra,64(sp)
10005b40:	afb00030 	sw	s0,48(sp)
10005b44:	afb10034 	sw	s1,52(sp)
10005b48:	afb20038 	sw	s2,56(sp)
10005b4c:	a3a40020 	sb	a0,32(sp)
10005b50:	240d0000 	li	t5,0
10005b54:	408d6000 	mtc0	t5,c0_sr
10005b58:	00000000 	nop
10005b5c:	83a40020 	lb	a0,32(sp)
10005b60:	00000000 	nop
10005b64:	0c0016ae 	jal	10005ab8 <send_byte>
10005b68:	00000000 	nop
10005b6c:	2404003a 	li	a0,58
10005b70:	0c0016ae 	jal	10005ab8 <send_byte>
10005b74:	00000000 	nop
10005b78:	3c021000 	lui	v0,0x1000
10005b7c:	24100020 	li	s0,32
10005b80:	24515ecc 	addiu	s1,v0,24268
10005b84:	00102021 	addu	a0,zero,s0
10005b88:	0c0016ae 	jal	10005ab8 <send_byte>
10005b8c:	00000000 	nop
10005b90:	8e240000 	lw	a0,0(s1)
10005b94:	00000000 	nop
10005b98:	2412000a 	li	s2,10
10005b9c:	00122821 	addu	a1,zero,s2
10005ba0:	0c001755 	jal	10005d54 <mod>
10005ba4:	00000000 	nop
10005ba8:	24420030 	addiu	v0,v0,48
10005bac:	a3a20024 	sb	v0,36(sp)
10005bb0:	8e240000 	lw	a0,0(s1)
10005bb4:	00000000 	nop
10005bb8:	00122821 	addu	a1,zero,s2
10005bbc:	0c001739 	jal	10005ce4 <div>
10005bc0:	00000000 	nop
10005bc4:	24420030 	addiu	v0,v0,48
10005bc8:	a3a20028 	sb	v0,40(sp)
10005bcc:	83a40028 	lb	a0,40(sp)
10005bd0:	00000000 	nop
10005bd4:	0c0016ae 	jal	10005ab8 <send_byte>
10005bd8:	00000000 	nop
10005bdc:	83a40024 	lb	a0,36(sp)
10005be0:	00000000 	nop
10005be4:	0c0016ae 	jal	10005ab8 <send_byte>
10005be8:	00000000 	nop
10005bec:	00102021 	addu	a0,zero,s0
10005bf0:	0c0016ae 	jal	10005ab8 <send_byte>
10005bf4:	00000000 	nop
10005bf8:	24040073 	li	a0,115
10005bfc:	0c0016ae 	jal	10005ab8 <send_byte>
10005c00:	00000000 	nop
10005c04:	2404000d 	li	a0,13
10005c08:	0c0016ae 	jal	10005ab8 <send_byte>
10005c0c:	00000000 	nop
10005c10:	00122021 	addu	a0,zero,s2
10005c14:	0c0016ae 	jal	10005ab8 <send_byte>
10005c18:	00000000 	nop
10005c1c:	340d8c01 	li	t5,0x8c01
10005c20:	408d6000 	mtc0	t5,c0_sr
10005c24:	00000000 	nop
10005c28:	8fb20038 	lw	s2,56(sp)
10005c2c:	00000000 	nop
10005c30:	8fb10034 	lw	s1,52(sp)
10005c34:	00000000 	nop
10005c38:	8fb00030 	lw	s0,48(sp)
10005c3c:	00000000 	nop
10005c40:	8fbf0040 	lw	ra,64(sp)
10005c44:	00000000 	nop
10005c48:	27bd0048 	addiu	sp,sp,72
10005c4c:	03e00008 	jr	ra
10005c50:	00000000 	nop

10005c54 <init_isr>:
10005c54:	27bdfff0 	addiu	sp,sp,-16
10005c58:	3c081f00 	lui	t0,0x1f00
10005c5c:	350800b0 	ori	t0,t0,0xb0
10005c60:	3c091f00 	lui	t1,0x1f00
10005c64:	352900b4 	ori	t1,t1,0xb4
10005c68:	3c0a1f00 	lui	t2,0x1f00
10005c6c:	354a00c4 	ori	t2,t2,0xc4
10005c70:	3c0c1f00 	lui	t4,0x1f00
10005c74:	358c00d0 	ori	t4,t4,0xd0
10005c78:	3c0d1f00 	lui	t5,0x1f00
10005c7c:	35ad00d4 	ori	t5,t5,0xd4
10005c80:	240e0001 	li	t6,1
10005c84:	3c0b1f00 	lui	t3,0x1f00
10005c88:	356b00c8 	ori	t3,t3,0xc8
10005c8c:	3c0f1f00 	lui	t7,0x1f00
10005c90:	35ef00bc 	ori	t7,t7,0xbc
10005c94:	ad000000 	sw	zero,0(t0)
10005c98:	ad200000 	sw	zero,0(t1)
10005c9c:	ad400000 	sw	zero,0(t2)
10005ca0:	ad6e0000 	sw	t6,0(t3)
10005ca4:	ad800000 	sw	zero,0(t4)
10005ca8:	ada00000 	sw	zero,0(t5)
10005cac:	ade00000 	sw	zero,0(t7)
10005cb0:	3c0b1f00 	lui	t3,0x1f00
10005cb4:	356b00c0 	ori	t3,t3,0xc0
10005cb8:	ad600000 	sw	zero,0(t3)
10005cbc:	40094800 	mfc0	t1,$9
10005cc0:	3c0102fa 	lui	at,0x2fa
10005cc4:	3421f080 	ori	at,at,0xf080
10005cc8:	01214821 	addu	t1,t1,at
10005ccc:	40895800 	mtc0	t1,$11
10005cd0:	34088c01 	li	t0,0x8c01
10005cd4:	40886000 	mtc0	t0,c0_sr
10005cd8:	27bd0010 	addiu	sp,sp,16
10005cdc:	03e00008 	jr	ra
10005ce0:	00000000 	nop

10005ce4 <div>:
10005ce4:	27bdffe0 	addiu	sp,sp,-32
10005ce8:	afa40010 	sw	a0,16(sp)
10005cec:	afa50014 	sw	a1,20(sp)
10005cf0:	afa00018 	sw	zero,24(sp)
10005cf4:	8fa20014 	lw	v0,20(sp)
10005cf8:	00000000 	nop
10005cfc:	8fa30010 	lw	v1,16(sp)
10005d00:	00000000 	nop
10005d04:	0043102a 	slt	v0,v0,v1
10005d08:	1040000d 	beqz	v0,10005d40 <div+0x5c>
10005d0c:	00000000 	nop
10005d10:	8fa20018 	lw	v0,24(sp)
10005d14:	00000000 	nop
10005d18:	24420001 	addiu	v0,v0,1
10005d1c:	afa20018 	sw	v0,24(sp)
10005d20:	8fa20010 	lw	v0,16(sp)
10005d24:	00000000 	nop
10005d28:	8fa30014 	lw	v1,20(sp)
10005d2c:	00000000 	nop
10005d30:	00431023 	subu	v0,v0,v1
10005d34:	afa20010 	sw	v0,16(sp)
10005d38:	0800173d 	j	10005cf4 <div+0x10>
10005d3c:	00000000 	nop
10005d40:	8fa20018 	lw	v0,24(sp)
10005d44:	00000000 	nop
10005d48:	27bd0020 	addiu	sp,sp,32
10005d4c:	03e00008 	jr	ra
10005d50:	00000000 	nop

10005d54 <mod>:
10005d54:	27bdffe8 	addiu	sp,sp,-24
10005d58:	afa40010 	sw	a0,16(sp)
10005d5c:	afa50014 	sw	a1,20(sp)
10005d60:	8fa20010 	lw	v0,16(sp)
10005d64:	00000000 	nop
10005d68:	8fa30014 	lw	v1,20(sp)
10005d6c:	00000000 	nop
10005d70:	0043102a 	slt	v0,v0,v1
10005d74:	14400009 	bnez	v0,10005d9c <mod+0x48>
10005d78:	00000000 	nop
10005d7c:	8fa20010 	lw	v0,16(sp)
10005d80:	00000000 	nop
10005d84:	8fa30014 	lw	v1,20(sp)
10005d88:	00000000 	nop
10005d8c:	00431023 	subu	v0,v0,v1
10005d90:	afa20010 	sw	v0,16(sp)
10005d94:	08001758 	j	10005d60 <mod+0xc>
10005d98:	00000000 	nop
10005d9c:	8fa20010 	lw	v0,16(sp)
10005da0:	00000000 	nop
10005da4:	27bd0018 	addiu	sp,sp,24
10005da8:	03e00008 	jr	ra
10005dac:	00000000 	nop

10005db0 <r100M>:
10005db0:	27bdfff0 	addiu	sp,sp,-16
10005db4:	00007820 	add	t7,zero,zero
10005db8:	3c1805f5 	lui	t8,0x5f5
10005dbc:	3718e100 	ori	t8,t8,0xe100

10005dc0 <loop>:
10005dc0:	25ef0001 	addiu	t7,t7,1
10005dc4:	15f8fffe 	bne	t7,t8,10005dc0 <loop>
10005dc8:	00000000 	nop
10005dcc:	27bd0010 	addiu	sp,sp,16
10005dd0:	03e00008 	jr	ra
10005dd4:	00000000 	nop

10005dd8 <R100M>:
10005dd8:	27bdffe8 	addiu	sp,sp,-24
10005ddc:	afbf0014 	sw	ra,20(sp)
10005de0:	00007820 	add	t7,zero,zero
10005de4:	3c1805f5 	lui	t8,0x5f5
10005de8:	3718e100 	ori	t8,t8,0xe100

10005dec <loopR>:
10005dec:	0c001784 	jal	10005e10 <addone>
10005df0:	00000000 	nop
10005df4:	15f8fffd 	bne	t7,t8,10005dec <loopR>
10005df8:	00000000 	nop
10005dfc:	8fbf0014 	lw	ra,20(sp)
10005e00:	00000000 	nop
10005e04:	27bd0018 	addiu	sp,sp,24
10005e08:	03e00008 	jr	ra
10005e0c:	00000000 	nop

10005e10 <addone>:
10005e10:	27bdfff0 	addiu	sp,sp,-16
10005e14:	25ef0001 	addiu	t7,t7,1
10005e18:	27bd0010 	addiu	sp,sp,16
10005e1c:	03e00008 	jr	ra
10005e20:	00000000 	nop

10005e24 <v100M>:
10005e24:	27bdfff0 	addiu	sp,sp,-16
10005e28:	00007820 	add	t7,zero,zero
10005e2c:	3c1805f5 	lui	t8,0x5f5
10005e30:	3718e100 	ori	t8,t8,0xe100
10005e34:	3c0e1f00 	lui	t6,0x1f00
10005e38:	35ce00ac 	ori	t6,t6,0xac
10005e3c:	adc00000 	sw	zero,0(t6)

10005e40 <loopv>:
10005e40:	8dcf0000 	lw	t7,0(t6)
10005e44:	00000000 	nop
10005e48:	25ef0001 	addiu	t7,t7,1
10005e4c:	adcf0000 	sw	t7,0(t6)
10005e50:	15f8fffb 	bne	t7,t8,10005e40 <loopv>
10005e54:	00000000 	nop
10005e58:	27bd0010 	addiu	sp,sp,16
10005e5c:	03e00008 	jr	ra
10005e60:	00000000 	nop

10005e64 <V100M>:
10005e64:	27bdffe8 	addiu	sp,sp,-24
10005e68:	afbf0014 	sw	ra,20(sp)
10005e6c:	3c1805f5 	lui	t8,0x5f5
10005e70:	3718e100 	ori	t8,t8,0xe100
10005e74:	3c0e1f00 	lui	t6,0x1f00
10005e78:	35ce00ac 	ori	t6,t6,0xac
10005e7c:	adc00000 	sw	zero,0(t6)
10005e80:	00000000 	nop

10005e84 <loopV>:
10005e84:	8dcf0000 	lw	t7,0(t6)
10005e88:	00000000 	nop
10005e8c:	0c001784 	jal	10005e10 <addone>
10005e90:	00000000 	nop
10005e94:	adcf0000 	sw	t7,0(t6)
10005e98:	00000000 	nop
10005e9c:	15f8fff9 	bne	t7,t8,10005e84 <loopV>
10005ea0:	00000000 	nop
10005ea4:	8fbf0014 	lw	ra,20(sp)
10005ea8:	00000000 	nop
10005eac:	27bd0018 	addiu	sp,sp,24
10005eb0:	03e00008 	jr	ra
10005eb4:	00000000 	nop

Disassembly of section .bss:

10005eb8 <pause>:
10005eb8:	00000000 	nop

10005ebc <x>:
10005ebc:	00000000 	nop

10005ec0 <tstart>:
10005ec0:	00000000 	nop

10005ec4 <tend>:
10005ec4:	00000000 	nop

10005ec8 <y>:
10005ec8:	00000000 	nop

10005ecc <diff>:
10005ecc:	00000000 	nop

10005ed0 <cmd_start>:
10005ed0:	00000000 	nop

Disassembly of section .reginfo:

00000000 <.reginfo>:
   0:	a10ffffe 	sb	t7,-2(t0)
	...

Disassembly of section .pdr:

00000000 <.pdr>:
   0:	10005118 	b	14464 <_start-0xfff0b9c>
   4:	800c0000 	lb	t4,0(zero)
   8:	fffffffc 	0xfffffffc
	...
  14:	00000038 	0x38
  18:	0000001d 	0x1d
  1c:	0000001f 	0x1f
  20:	10005350 	b	14d64 <_start-0xfff029c>
  24:	00000000 	nop
	...
  34:	00000018 	mult	zero,zero
  38:	0000001d 	0x1d
  3c:	0000001f 	0x1f
  40:	100053a0 	b	14ec4 <_start-0xfff013c>
  44:	00000000 	nop
	...
  54:	00000028 	0x28
  58:	0000001d 	0x1d
  5c:	0000001f 	0x1f
  60:	10005460 	b	151e4 <_start-0xffefe1c>
  64:	80040000 	lb	a0,0(zero)
  68:	fffffff8 	0xfffffff8
	...
  74:	00000048 	0x48
  78:	0000001d 	0x1d
  7c:	0000001f 	0x1f
  80:	10005524 	b	15514 <_start-0xffefaec>
  84:	803c0000 	lb	gp,0(at)
  88:	fffffffc 	0xfffffffc
	...
  94:	00000028 	0x28
  98:	0000001d 	0x1d
  9c:	0000001f 	0x1f
  a0:	10005660 	b	15a24 <_start-0xffef5dc>
  a4:	803c0000 	lb	gp,0(at)
  a8:	fffffffc 	0xfffffffc
	...
  b4:	00000028 	0x28
  b8:	0000001d 	0x1d
  bc:	0000001f 	0x1f
  c0:	10005ab8 	b	16ba4 <_start-0xffee45c>
  c4:	00000000 	nop
	...
  d4:	00000018 	mult	zero,zero
  d8:	0000001d 	0x1d
  dc:	0000001f 	0x1f
  e0:	10005b38 	b	16dc4 <_start-0xffee23c>
  e4:	801c0000 	lb	gp,0(zero)
  e8:	fffffff8 	0xfffffff8
	...
  f4:	00000048 	0x48
  f8:	0000001d 	0x1d
  fc:	0000001f 	0x1f
 100:	10005c54 	b	17254 <_start-0xffeddac>
 104:	00000000 	nop
	...
 114:	00000010 	mfhi	zero
 118:	0000001d 	0x1d
 11c:	0000001f 	0x1f
 120:	10005ce4 	b	174b4 <_start-0xffedb4c>
 124:	00000000 	nop
	...
 134:	00000020 	add	zero,zero,zero
 138:	0000001d 	0x1d
 13c:	0000001f 	0x1f
 140:	10005d54 	b	17694 <_start-0xffed96c>
 144:	00000000 	nop
	...
 154:	00000018 	mult	zero,zero
 158:	0000001d 	0x1d
 15c:	0000001f 	0x1f
 160:	10005db0 	b	17824 <_start-0xffed7dc>
 164:	00000000 	nop
	...
 174:	00000010 	mfhi	zero
 178:	0000001d 	0x1d
 17c:	0000001f 	0x1f
 180:	10005dd8 	b	178e4 <_start-0xffed71c>
 184:	80000000 	lb	zero,0(zero)
 188:	fffffffc 	0xfffffffc
	...
 194:	00000018 	mult	zero,zero
 198:	0000001d 	0x1d
 19c:	0000001f 	0x1f
 1a0:	10005e10 	b	179e4 <_start-0xffed61c>
 1a4:	00000000 	nop
	...
 1b4:	00000010 	mfhi	zero
 1b8:	0000001d 	0x1d
 1bc:	0000001f 	0x1f
 1c0:	10005e24 	b	17a54 <_start-0xffed5ac>
 1c4:	00000000 	nop
	...
 1d4:	00000010 	mfhi	zero
 1d8:	0000001d 	0x1d
 1dc:	0000001f 	0x1f
 1e0:	10005e64 	b	17b74 <_start-0xffed48c>
 1e4:	80000000 	lb	zero,0(zero)
 1e8:	fffffffc 	0xfffffffc
	...
 1f4:	00000018 	mult	zero,zero
 1f8:	0000001d 	0x1d
 1fc:	0000001f 	0x1f
