
app.elf:     file format elf32-bigmips


Disassembly of section .text:

10003000 <_start>:
10003000:	3c1d1000 	lui	sp,0x1000
10003004:	0c000c03 	jal	1000300c <main>
10003008:	37bd5000 	ori	sp,sp,0x5000

1000300c <main>:
1000300c:	27bdffc8 	addiu	sp,sp,-56
10003010:	afbf0034 	sw	ra,52(sp)
10003014:	afa00020 	sw	zero,32(sp)
10003018:	3c081f00 	lui	t0,0x1f00
1000301c:	350800b0 	ori	t0,t0,0xb0
10003020:	3c091f00 	lui	t1,0x1f00
10003024:	352900b4 	ori	t1,t1,0xb4
10003028:	3c0a1f00 	lui	t2,0x1f00
1000302c:	354a00c4 	ori	t2,t2,0xc4
10003030:	3c0c1f00 	lui	t4,0x1f00
10003034:	358c00d0 	ori	t4,t4,0xd0
10003038:	3c0d1f00 	lui	t5,0x1f00
1000303c:	35ad00d4 	ori	t5,t5,0xd4
10003040:	240e0001 	li	t6,1
10003044:	3c0b1f00 	lui	t3,0x1f00
10003048:	356b00c8 	ori	t3,t3,0xc8
1000304c:	3c0f1f00 	lui	t7,0x1f00
10003050:	35ef00bc 	ori	t7,t7,0xbc
10003054:	ad000000 	sw	zero,0(t0)
10003058:	ad200000 	sw	zero,0(t1)
1000305c:	ad400000 	sw	zero,0(t2)
10003060:	ad6e0000 	sw	t6,0(t3)
10003064:	ad800000 	sw	zero,0(t4)
10003068:	ada00000 	sw	zero,0(t5)
1000306c:	ade00000 	sw	zero,0(t7)
10003070:	3c0b1f00 	lui	t3,0x1f00
10003074:	356b00c0 	ori	t3,t3,0xc0
10003078:	ad600000 	sw	zero,0(t3)
1000307c:	40094800 	mfc0	t1,$9
10003080:	3c0102fa 	lui	at,0x2fa
10003084:	3421f080 	ori	at,at,0xf080
10003088:	01214821 	addu	t1,t1,at
1000308c:	40895800 	mtc0	t1,$11
10003090:	34088c01 	li	t0,0x8c01
10003094:	40886000 	mtc0	t0,c0_sr
10003098:	3c021f00 	lui	v0,0x1f00
1000309c:	344200c0 	ori	v0,v0,0xc0
100030a0:	8c420000 	lw	v0,0(v0)
100030a4:	00000000 	nop
100030a8:	304200ff 	andi	v0,v0,0xff
100030ac:	24030072 	li	v1,114
100030b0:	1443fff9 	bne	v0,v1,10003098 <main+0x8c>
100030b4:	00000000 	nop
100030b8:	0c000c48 	jal	10003120 <r100M>
100030bc:	00000000 	nop
100030c0:	24040072 	li	a0,114
100030c4:	0c000c38 	jal	100030e0 <send_time>
100030c8:	00000000 	nop
100030cc:	3c081f00 	lui	t0,0x1f00
100030d0:	350800c0 	ori	t0,t0,0xc0
100030d4:	ad000000 	sw	zero,0(t0)
100030d8:	08000c26 	j	10003098 <main+0x8c>
100030dc:	00000000 	nop

100030e0 <send_time>:
100030e0:	27bdffd0 	addiu	sp,sp,-48
100030e4:	afbf002c 	sw	ra,44(sp)
100030e8:	a3a40020 	sb	a0,32(sp)
100030ec:	34088c00 	li	t0,0x8c00
100030f0:	40886000 	mtc0	t0,c0_sr
100030f4:	83a40020 	lb	a0,32(sp)
100030f8:	00000000 	nop
100030fc:	0c000c51 	jal	10003144 <send_byte>
10003100:	00000000 	nop
10003104:	34088c01 	li	t0,0x8c01
10003108:	40886000 	mtc0	t0,c0_sr
1000310c:	8fbf002c 	lw	ra,44(sp)
10003110:	00000000 	nop
10003114:	27bd0030 	addiu	sp,sp,48
10003118:	03e00008 	jr	ra
1000311c:	00000000 	nop

10003120 <r100M>:
10003120:	27bdfff0 	addiu	sp,sp,-16
10003124:	00007820 	add	t7,zero,zero
10003128:	3c1805f5 	lui	t8,0x5f5
1000312c:	3718e100 	ori	t8,t8,0xe100

10003130 <loop>:
10003130:	21ef0001 	addi	t7,t7,1
10003134:	15f8fffe 	bne	t7,t8,10003130 <loop>
10003138:	27bd0010 	addiu	sp,sp,16
1000313c:	03e00008 	jr	ra
10003140:	00000000 	nop

10003144 <send_byte>:
10003144:	27bdffe8 	addiu	sp,sp,-24
10003148:	a3a40010 	sb	a0,16(sp)
1000314c:	3c081f00 	lui	t0,0x1f00
10003150:	350800d0 	ori	t0,t0,0xd0
10003154:	8d090000 	lw	t1,0(t0)
10003158:	3c081f00 	lui	t0,0x1f00
1000315c:	350800d8 	ori	t0,t0,0xd8
10003160:	01284021 	addu	t0,t1,t0
10003164:	a1040000 	sb	a0,0(t0)
10003168:	3c081f00 	lui	t0,0x1f00
1000316c:	350800d0 	ori	t0,t0,0xd0
10003170:	8d090000 	lw	t1,0(t0)
10003174:	25290001 	addiu	t1,t1,1
10003178:	ad090000 	sw	t1,0(t0)
1000317c:	24080014 	li	t0,20
10003180:	15090003 	bne	t0,t1,10003190 <xyz>
10003184:	3c081f00 	lui	t0,0x1f00
10003188:	350800d0 	ori	t0,t0,0xd0
1000318c:	ad000000 	sw	zero,0(t0)

10003190 <xyz>:
10003190:	03e00008 	jr	ra
10003194:	27bd0018 	addiu	sp,sp,24
10003198:	03e00008 	jr	ra
1000319c:	00000000 	nop

Disassembly of section .reginfo:

00000000 <.reginfo>:
   0:	a100ff1e 	sb	zero,-226(t0)
	...

Disassembly of section .pdr:

00000000 <.pdr>:
   0:	1000300c 	b	c034 <_start-0xfff6fcc>
   4:	80000000 	lb	zero,0(zero)
   8:	fffffffc 	0xfffffffc
	...
  14:	00000038 	0x38
  18:	0000001d 	0x1d
  1c:	0000001f 	0x1f
  20:	100030e0 	b	c3a4 <_start-0xfff6c5c>
  24:	80000000 	lb	zero,0(zero)
  28:	fffffffc 	0xfffffffc
	...
  34:	00000030 	0x30
  38:	0000001d 	0x1d
  3c:	0000001f 	0x1f
  40:	10003120 	b	c4c4 <_start-0xfff6b3c>
  44:	00000000 	nop
	...
  54:	00000010 	mfhi	zero
  58:	0000001d 	0x1d
  5c:	0000001f 	0x1f
  60:	10003144 	b	c574 <_start-0xfff6a8c>
  64:	00000000 	nop
	...
  74:	00000018 	mult	zero,zero
  78:	0000001d 	0x1d
  7c:	0000001f 	0x1f
