
app.elf:     file format elf32-bigmips


Disassembly of section .text:

10005000 <_start>:
10005000:	3c1d1000 	lui	sp,0x1000
10005004:	0c001403 	jal	1000500c <main>
10005008:	37bd7000 	ori	sp,sp,0x7000

1000500c <main>:
1000500c:	27bdffc8 	addiu	sp,sp,-56
10005010:	afbf0034 	sw	ra,52(sp)
10005014:	afa00020 	sw	zero,32(sp)
10005018:	3c081f00 	lui	t0,0x1f00
1000501c:	350800b0 	ori	t0,t0,0xb0
10005020:	3c091f00 	lui	t1,0x1f00
10005024:	352900b4 	ori	t1,t1,0xb4
10005028:	3c0a1f00 	lui	t2,0x1f00
1000502c:	354a00c4 	ori	t2,t2,0xc4
10005030:	3c0c1f00 	lui	t4,0x1f00
10005034:	358c00d0 	ori	t4,t4,0xd0
10005038:	3c0d1f00 	lui	t5,0x1f00
1000503c:	35ad00d4 	ori	t5,t5,0xd4
10005040:	240e0001 	li	t6,1
10005044:	3c0b1f00 	lui	t3,0x1f00
10005048:	356b00c8 	ori	t3,t3,0xc8
1000504c:	3c0f1f00 	lui	t7,0x1f00
10005050:	35ef00bc 	ori	t7,t7,0xbc
10005054:	ad000000 	sw	zero,0(t0)
10005058:	ad200000 	sw	zero,0(t1)
1000505c:	ad400000 	sw	zero,0(t2)
10005060:	ad6e0000 	sw	t6,0(t3)
10005064:	ad800000 	sw	zero,0(t4)
10005068:	ada00000 	sw	zero,0(t5)
1000506c:	ade00000 	sw	zero,0(t7)
10005070:	3c0b1f00 	lui	t3,0x1f00
10005074:	356b00c0 	ori	t3,t3,0xc0
10005078:	ad600000 	sw	zero,0(t3)
1000507c:	40094800 	mfc0	t1,$9
10005080:	3c0102fa 	lui	at,0x2fa
10005084:	3421f080 	ori	at,at,0xf080
10005088:	01214821 	addu	t1,t1,at
1000508c:	40895800 	mtc0	t1,$11
10005090:	34088c01 	li	t0,0x8c01
10005094:	40886000 	mtc0	t0,c0_sr
10005098:	3c021f00 	lui	v0,0x1f00
1000509c:	344200c0 	ori	v0,v0,0xc0
100050a0:	8c420000 	lw	v0,0(v0)
100050a4:	00000000 	nop
100050a8:	304200ff 	andi	v0,v0,0xff
100050ac:	24030072 	li	v1,114
100050b0:	14430019 	bne	v0,v1,10005118 <main+0x10c>
100050b4:	00000000 	nop
100050b8:	3c081f00 	lui	t0,0x1f00
100050bc:	350800c8 	ori	t0,t0,0xc8
100050c0:	24090001 	li	t1,1
100050c4:	0c0014b8 	jal	100052e0 <r100M>
100050c8:	00000000 	nop
100050cc:	3c081f00 	lui	t0,0x1f00
100050d0:	350800c8 	ori	t0,t0,0xc8
100050d4:	24090001 	li	t1,1
100050d8:	34088c01 	li	t0,0x8c01
	...
100050e8:	24040072 	li	a0,114
100050ec:	0c0014a6 	jal	10005298 <send_time>
100050f0:	00000000 	nop
100050f4:	340d8c01 	li	t5,0x8c01
100050f8:	408d6000 	mtc0	t5,c0_sr
100050fc:	00000000 	nop
10005100:	3c081f00 	lui	t0,0x1f00
10005104:	350800c0 	ori	t0,t0,0xc0
10005108:	ad000000 	sw	zero,0(t0)
1000510c:	018c6020 	add	t4,t4,t4
10005110:	08001426 	j	10005098 <main+0x8c>
10005114:	00000000 	nop
10005118:	3c021f00 	lui	v0,0x1f00
1000511c:	344200c0 	ori	v0,v0,0xc0
10005120:	8c420000 	lw	v0,0(v0)
10005124:	00000000 	nop
10005128:	304200ff 	andi	v0,v0,0xff
1000512c:	24030052 	li	v1,82
10005130:	14430019 	bne	v0,v1,10005198 <main+0x18c>
10005134:	00000000 	nop
10005138:	3c081f00 	lui	t0,0x1f00
1000513c:	350800c8 	ori	t0,t0,0xc8
10005140:	24090001 	li	t1,1
10005144:	0c0014c2 	jal	10005308 <R100M>
10005148:	00000000 	nop
1000514c:	3c081f00 	lui	t0,0x1f00
10005150:	350800c8 	ori	t0,t0,0xc8
10005154:	24090001 	li	t1,1
10005158:	34088c01 	li	t0,0x8c01
	...
10005168:	24040052 	li	a0,82
1000516c:	0c0014a6 	jal	10005298 <send_time>
10005170:	00000000 	nop
10005174:	340d8c01 	li	t5,0x8c01
10005178:	408d6000 	mtc0	t5,c0_sr
1000517c:	00000000 	nop
10005180:	3c081f00 	lui	t0,0x1f00
10005184:	350800c0 	ori	t0,t0,0xc0
10005188:	ad000000 	sw	zero,0(t0)
1000518c:	018c6020 	add	t4,t4,t4
10005190:	08001426 	j	10005098 <main+0x8c>
10005194:	00000000 	nop
10005198:	3c021f00 	lui	v0,0x1f00
1000519c:	344200c0 	ori	v0,v0,0xc0
100051a0:	8c420000 	lw	v0,0(v0)
100051a4:	00000000 	nop
100051a8:	304200ff 	andi	v0,v0,0xff
100051ac:	24030076 	li	v1,118
100051b0:	14430019 	bne	v0,v1,10005218 <main+0x20c>
100051b4:	00000000 	nop
100051b8:	3c081f00 	lui	t0,0x1f00
100051bc:	350800c8 	ori	t0,t0,0xc8
100051c0:	24090001 	li	t1,1
100051c4:	0c0014d5 	jal	10005354 <v100M>
100051c8:	00000000 	nop
100051cc:	3c081f00 	lui	t0,0x1f00
100051d0:	350800c8 	ori	t0,t0,0xc8
100051d4:	24090001 	li	t1,1
100051d8:	34088c01 	li	t0,0x8c01
	...
100051e8:	24040076 	li	a0,118
100051ec:	0c0014a6 	jal	10005298 <send_time>
100051f0:	00000000 	nop
100051f4:	340d8c01 	li	t5,0x8c01
100051f8:	408d6000 	mtc0	t5,c0_sr
100051fc:	00000000 	nop
10005200:	3c081f00 	lui	t0,0x1f00
10005204:	350800c0 	ori	t0,t0,0xc0
10005208:	ad000000 	sw	zero,0(t0)
1000520c:	018c6020 	add	t4,t4,t4
10005210:	08001426 	j	10005098 <main+0x8c>
10005214:	00000000 	nop
10005218:	3c021f00 	lui	v0,0x1f00
1000521c:	344200c0 	ori	v0,v0,0xc0
10005220:	8c420000 	lw	v0,0(v0)
10005224:	00000000 	nop
10005228:	304200ff 	andi	v0,v0,0xff
1000522c:	24030056 	li	v1,86
10005230:	14430016 	bne	v0,v1,1000528c <main+0x280>
10005234:	00000000 	nop
10005238:	3c081f00 	lui	t0,0x1f00
1000523c:	350800c8 	ori	t0,t0,0xc8
10005240:	24090001 	li	t1,1
10005244:	0c0014e4 	jal	10005390 <V100M>
10005248:	00000000 	nop
1000524c:	3c081f00 	lui	t0,0x1f00
10005250:	350800c8 	ori	t0,t0,0xc8
10005254:	24090001 	li	t1,1
10005258:	34088c01 	li	t0,0x8c01
	...
10005268:	24040056 	li	a0,86
1000526c:	0c0014a6 	jal	10005298 <send_time>
10005270:	00000000 	nop
10005274:	340d8c01 	li	t5,0x8c01
10005278:	408d6000 	mtc0	t5,c0_sr
1000527c:	00000000 	nop
10005280:	3c081f00 	lui	t0,0x1f00
10005284:	350800c0 	ori	t0,t0,0xc0
10005288:	ad000000 	sw	zero,0(t0)
1000528c:	018c6020 	add	t4,t4,t4
10005290:	08001426 	j	10005098 <main+0x8c>
10005294:	00000000 	nop

10005298 <send_time>:
10005298:	27bdffd0 	addiu	sp,sp,-48
1000529c:	afbf002c 	sw	ra,44(sp)
100052a0:	a3a40020 	sb	a0,32(sp)
100052a4:	240d0000 	li	t5,0
100052a8:	408d6000 	mtc0	t5,c0_sr
100052ac:	00000000 	nop
100052b0:	83a40020 	lb	a0,32(sp)
100052b4:	00000000 	nop
100052b8:	0c0014f7 	jal	100053dc <send_byte>
100052bc:	00000000 	nop
100052c0:	340d8c01 	li	t5,0x8c01
100052c4:	408d6000 	mtc0	t5,c0_sr
100052c8:	00000000 	nop
100052cc:	8fbf002c 	lw	ra,44(sp)
100052d0:	00000000 	nop
100052d4:	27bd0030 	addiu	sp,sp,48
100052d8:	03e00008 	jr	ra
100052dc:	00000000 	nop

100052e0 <r100M>:
100052e0:	27bdfff0 	addiu	sp,sp,-16
100052e4:	00007820 	add	t7,zero,zero
100052e8:	3c1805f5 	lui	t8,0x5f5
100052ec:	3718e100 	ori	t8,t8,0xe100

100052f0 <loop>:
100052f0:	25ef0001 	addiu	t7,t7,1
100052f4:	15f8fffe 	bne	t7,t8,100052f0 <loop>
100052f8:	00000000 	nop
100052fc:	27bd0010 	addiu	sp,sp,16
10005300:	03e00008 	jr	ra
10005304:	00000000 	nop

10005308 <R100M>:
10005308:	27bdffe8 	addiu	sp,sp,-24
1000530c:	afbf0014 	sw	ra,20(sp)
10005310:	00007820 	add	t7,zero,zero
10005314:	3c1805f5 	lui	t8,0x5f5
10005318:	3718e100 	ori	t8,t8,0xe100

1000531c <loopR>:
1000531c:	0c0014d0 	jal	10005340 <addone>
10005320:	00000000 	nop
10005324:	15f8fffd 	bne	t7,t8,1000531c <loopR>
10005328:	00000000 	nop
1000532c:	8fbf0014 	lw	ra,20(sp)
10005330:	00000000 	nop
10005334:	27bd0018 	addiu	sp,sp,24
10005338:	03e00008 	jr	ra
1000533c:	00000000 	nop

10005340 <addone>:
10005340:	27bdfff0 	addiu	sp,sp,-16
10005344:	25ef0001 	addiu	t7,t7,1
10005348:	27bd0010 	addiu	sp,sp,16
1000534c:	03e00008 	jr	ra
10005350:	00000000 	nop

10005354 <v100M>:
10005354:	27bdfff0 	addiu	sp,sp,-16
10005358:	00007820 	add	t7,zero,zero
1000535c:	3c1805f5 	lui	t8,0x5f5
10005360:	3718e100 	ori	t8,t8,0xe100

10005364 <loopv>:
10005364:	3c0e1f00 	lui	t6,0x1f00
10005368:	35ce00ac 	ori	t6,t6,0xac
1000536c:	8dcf0000 	lw	t7,0(t6)
10005370:	00000000 	nop
10005374:	25ef0001 	addiu	t7,t7,1
10005378:	adcf0000 	sw	t7,0(t6)
1000537c:	15f8fff9 	bne	t7,t8,10005364 <loopv>
10005380:	00000000 	nop
10005384:	27bd0010 	addiu	sp,sp,16
10005388:	03e00008 	jr	ra
1000538c:	00000000 	nop

10005390 <V100M>:
10005390:	27bdffe8 	addiu	sp,sp,-24
10005394:	afbf0014 	sw	ra,20(sp)
10005398:	00007820 	add	t7,zero,zero
1000539c:	3c1805f5 	lui	t8,0x5f5
100053a0:	3718e100 	ori	t8,t8,0xe100

100053a4 <loopV>:
100053a4:	3c0e1f00 	lui	t6,0x1f00
100053a8:	35ce00ac 	ori	t6,t6,0xac
100053ac:	8dcf0000 	lw	t7,0(t6)
100053b0:	00000000 	nop
100053b4:	0c0014d0 	jal	10005340 <addone>
100053b8:	00000000 	nop
100053bc:	adcf0000 	sw	t7,0(t6)
100053c0:	15f8fff8 	bne	t7,t8,100053a4 <loopV>
100053c4:	00000000 	nop
100053c8:	8fbf0014 	lw	ra,20(sp)
100053cc:	00000000 	nop
100053d0:	27bd0018 	addiu	sp,sp,24
100053d4:	03e00008 	jr	ra
100053d8:	00000000 	nop

100053dc <send_byte>:
100053dc:	27bdffe8 	addiu	sp,sp,-24
100053e0:	a3a40010 	sb	a0,16(sp)
100053e4:	3c081f00 	lui	t0,0x1f00
100053e8:	350800d0 	ori	t0,t0,0xd0
100053ec:	8d090000 	lw	t1,0(t0)
100053f0:	312900ff 	andi	t1,t1,0xff
100053f4:	00000000 	nop
100053f8:	3c081f00 	lui	t0,0x1f00
100053fc:	350800d8 	ori	t0,t0,0xd8
10005400:	01284021 	addu	t0,t1,t0
10005404:	a1040000 	sb	a0,0(t0)
10005408:	00000000 	nop
1000540c:	3c081f00 	lui	t0,0x1f00
10005410:	350800d0 	ori	t0,t0,0xd0
10005414:	8d090000 	lw	t1,0(t0)
10005418:	312900ff 	andi	t1,t1,0xff
1000541c:	00000000 	nop
10005420:	25290001 	addiu	t1,t1,1
10005424:	ad090000 	sw	t1,0(t0)
10005428:	00000000 	nop
1000542c:	240800ff 	li	t0,255
10005430:	0109482a 	slt	t1,t0,t1
10005434:	11200005 	beqz	t1,1000544c <xyz>
10005438:	00000000 	nop
1000543c:	3c081f00 	lui	t0,0x1f00
10005440:	350800d0 	ori	t0,t0,0xd0
10005444:	ad000000 	sw	zero,0(t0)
10005448:	00000000 	nop

1000544c <xyz>:
1000544c:	00000000 	nop
10005450:	27bd0018 	addiu	sp,sp,24
10005454:	03e00008 	jr	ra
10005458:	00000000 	nop

Disassembly of section .reginfo:

00000000 <.reginfo>:
   0:	a100ff1e 	sb	zero,-226(t0)
	...

Disassembly of section .pdr:

00000000 <.pdr>:
   0:	1000500c 	b	14034 <_start-0xfff0fcc>
   4:	80000000 	lb	zero,0(zero)
   8:	fffffffc 	0xfffffffc
	...
  14:	00000038 	0x38
  18:	0000001d 	0x1d
  1c:	0000001f 	0x1f
  20:	10005298 	b	14a84 <_start-0xfff057c>
  24:	80000000 	lb	zero,0(zero)
  28:	fffffffc 	0xfffffffc
	...
  34:	00000030 	0x30
  38:	0000001d 	0x1d
  3c:	0000001f 	0x1f
  40:	100052e0 	b	14bc4 <_start-0xfff043c>
  44:	00000000 	nop
	...
  54:	00000010 	mfhi	zero
  58:	0000001d 	0x1d
  5c:	0000001f 	0x1f
  60:	10005308 	b	14c84 <_start-0xfff037c>
  64:	80000000 	lb	zero,0(zero)
  68:	fffffffc 	0xfffffffc
	...
  74:	00000018 	mult	zero,zero
  78:	0000001d 	0x1d
  7c:	0000001f 	0x1f
  80:	10005340 	b	14d84 <_start-0xfff027c>
  84:	00000000 	nop
	...
  94:	00000010 	mfhi	zero
  98:	0000001d 	0x1d
  9c:	0000001f 	0x1f
  a0:	10005354 	b	14df4 <_start-0xfff020c>
  a4:	00000000 	nop
	...
  b4:	00000010 	mfhi	zero
  b8:	0000001d 	0x1d
  bc:	0000001f 	0x1f
  c0:	10005390 	b	14f04 <_start-0xfff00fc>
  c4:	80000000 	lb	zero,0(zero)
  c8:	fffffffc 	0xfffffffc
	...
  d4:	00000018 	mult	zero,zero
  d8:	0000001d 	0x1d
  dc:	0000001f 	0x1f
  e0:	100053dc 	b	15054 <_start-0xffeffac>
  e4:	00000000 	nop
	...
  f4:	00000018 	mult	zero,zero
  f8:	0000001d 	0x1d
  fc:	0000001f 	0x1f
