
app.elf:     file format elf32-bigmips


Disassembly of section .text:

10005000 <_start>:
10005000:	3c1d1000 	lui	sp,0x1000
10005004:	0c001403 	jal	1000500c <main>
10005008:	37bd7000 	ori	sp,sp,0x7000

1000500c <main>:
1000500c:	27bdffc0 	addiu	sp,sp,-64
10005010:	afbf0038 	sw	ra,56(sp)
10005014:	afb00030 	sw	s0,48(sp)
10005018:	afa00020 	sw	zero,32(sp)
1000501c:	3c081f00 	lui	t0,0x1f00
10005020:	350800b0 	ori	t0,t0,0xb0
10005024:	3c091f00 	lui	t1,0x1f00
10005028:	352900b4 	ori	t1,t1,0xb4
1000502c:	3c0a1f00 	lui	t2,0x1f00
10005030:	354a00c4 	ori	t2,t2,0xc4
10005034:	3c0c1f00 	lui	t4,0x1f00
10005038:	358c00d0 	ori	t4,t4,0xd0
1000503c:	3c0d1f00 	lui	t5,0x1f00
10005040:	35ad00d4 	ori	t5,t5,0xd4
10005044:	240e0001 	li	t6,1
10005048:	3c0b1f00 	lui	t3,0x1f00
1000504c:	356b00c8 	ori	t3,t3,0xc8
10005050:	3c0f1f00 	lui	t7,0x1f00
10005054:	35ef00bc 	ori	t7,t7,0xbc
10005058:	ad000000 	sw	zero,0(t0)
1000505c:	ad200000 	sw	zero,0(t1)
10005060:	ad400000 	sw	zero,0(t2)
10005064:	ad6e0000 	sw	t6,0(t3)
10005068:	ad800000 	sw	zero,0(t4)
1000506c:	ada00000 	sw	zero,0(t5)
10005070:	ade00000 	sw	zero,0(t7)
10005074:	3c0b1f00 	lui	t3,0x1f00
10005078:	356b00c0 	ori	t3,t3,0xc0
1000507c:	ad600000 	sw	zero,0(t3)
10005080:	40094800 	mfc0	t1,$9
10005084:	3c0102fa 	lui	at,0x2fa
10005088:	3421f080 	ori	at,at,0xf080
1000508c:	01214821 	addu	t1,t1,at
10005090:	40895800 	mtc0	t1,$11
10005094:	34088c01 	li	t0,0x8c01
10005098:	40886000 	mtc0	t0,c0_sr
1000509c:	3c021f00 	lui	v0,0x1f00
100050a0:	344200c0 	ori	v0,v0,0xc0
100050a4:	8c420000 	lw	v0,0(v0)
100050a8:	00000000 	nop
100050ac:	304200ff 	andi	v0,v0,0xff
100050b0:	24030072 	li	v1,114
100050b4:	14430019 	bne	v0,v1,1000511c <main+0x110>
100050b8:	00000000 	nop
100050bc:	3c021f00 	lui	v0,0x1f00
100050c0:	345000bc 	ori	s0,v0,0xbc
100050c4:	8e020000 	lw	v0,0(s0)
100050c8:	00000000 	nop
100050cc:	304200ff 	andi	v0,v0,0xff
100050d0:	afa20024 	sw	v0,36(sp)
100050d4:	0c001491 	jal	10005244 <r100M>
100050d8:	00000000 	nop
100050dc:	8e020000 	lw	v0,0(s0)
100050e0:	00000000 	nop
100050e4:	304200ff 	andi	v0,v0,0xff
100050e8:	afa20028 	sw	v0,40(sp)
100050ec:	3c031000 	lui	v1,0x1000
100050f0:	8fa40024 	lw	a0,36(sp)
100050f4:	00000000 	nop
100050f8:	00441023 	subu	v0,v0,a0
100050fc:	246352ec 	addiu	v1,v1,21228
10005100:	ac620000 	sw	v0,0(v1)
10005104:	24040072 	li	a0,114
10005108:	0c00144a 	jal	10005128 <send_time>
1000510c:	00000000 	nop
10005110:	3c081f00 	lui	t0,0x1f00
10005114:	350800c0 	ori	t0,t0,0xc0
10005118:	ad000000 	sw	zero,0(t0)
1000511c:	018c6020 	add	t4,t4,t4
10005120:	08001427 	j	1000509c <main+0x90>
10005124:	00000000 	nop

10005128 <send_time>:
10005128:	27bdffc8 	addiu	sp,sp,-56
1000512c:	afbf0034 	sw	ra,52(sp)
10005130:	afb00028 	sw	s0,40(sp)
10005134:	afb1002c 	sw	s1,44(sp)
10005138:	a3a40020 	sb	a0,32(sp)
1000513c:	240d0000 	li	t5,0
10005140:	408d6000 	mtc0	t5,c0_sr
10005144:	00000000 	nop
10005148:	83a40020 	lb	a0,32(sp)
1000514c:	00000000 	nop
10005150:	0c00149b 	jal	1000526c <send_byte>
10005154:	00000000 	nop
10005158:	2404003a 	li	a0,58
1000515c:	0c00149b 	jal	1000526c <send_byte>
10005160:	00000000 	nop
10005164:	3c021000 	lui	v0,0x1000
10005168:	24040020 	li	a0,32
1000516c:	3c106666 	lui	s0,0x6666
10005170:	245152ec 	addiu	s1,v0,21228
10005174:	0c00149b 	jal	1000526c <send_byte>
10005178:	00000000 	nop
1000517c:	8e220000 	lw	v0,0(s1)
10005180:	00000000 	nop
10005184:	36106667 	ori	s0,s0,0x6667
10005188:	00500018 	mult	v0,s0
1000518c:	00001010 	mfhi	v0
10005190:	00021882 	srl	v1,v0,0x2
10005194:	000217c2 	srl	v0,v0,0x1f
10005198:	00621021 	addu	v0,v1,v0
1000519c:	24420030 	addiu	v0,v0,48
100051a0:	00021600 	sll	v0,v0,0x18
100051a4:	00022603 	sra	a0,v0,0x18
100051a8:	0c00149b 	jal	1000526c <send_byte>
100051ac:	00000000 	nop
100051b0:	8e220000 	lw	v0,0(s1)
100051b4:	00000000 	nop
100051b8:	00500018 	mult	v0,s0
100051bc:	00001810 	mfhi	v1
100051c0:	00032082 	srl	a0,v1,0x2
100051c4:	00031fc2 	srl	v1,v1,0x1f
100051c8:	00831821 	addu	v1,a0,v1
100051cc:	2410000a 	li	s0,10
100051d0:	00700018 	mult	v1,s0
100051d4:	00001812 	mflo	v1
100051d8:	00431023 	subu	v0,v0,v1
100051dc:	24420030 	addiu	v0,v0,48
100051e0:	00021600 	sll	v0,v0,0x18
100051e4:	00022603 	sra	a0,v0,0x18
100051e8:	0c00149b 	jal	1000526c <send_byte>
100051ec:	00000000 	nop
100051f0:	24040073 	li	a0,115
100051f4:	0c00149b 	jal	1000526c <send_byte>
100051f8:	00000000 	nop
100051fc:	2404000d 	li	a0,13
10005200:	0c00149b 	jal	1000526c <send_byte>
10005204:	00000000 	nop
10005208:	00102021 	addu	a0,zero,s0
1000520c:	0c00149b 	jal	1000526c <send_byte>
10005210:	00000000 	nop
10005214:	340d8c01 	li	t5,0x8c01
10005218:	408d6000 	mtc0	t5,c0_sr
1000521c:	00000000 	nop
10005220:	8fb1002c 	lw	s1,44(sp)
10005224:	00000000 	nop
10005228:	8fb00028 	lw	s0,40(sp)
1000522c:	00000000 	nop
10005230:	8fbf0034 	lw	ra,52(sp)
10005234:	00000000 	nop
10005238:	27bd0038 	addiu	sp,sp,56
1000523c:	03e00008 	jr	ra
10005240:	00000000 	nop

10005244 <r100M>:
10005244:	27bdfff0 	addiu	sp,sp,-16
10005248:	00007820 	add	t7,zero,zero
1000524c:	3c1805f5 	lui	t8,0x5f5
10005250:	3718e100 	ori	t8,t8,0xe100

10005254 <loop>:
10005254:	25ef0001 	addiu	t7,t7,1
10005258:	15f8fffe 	bne	t7,t8,10005254 <loop>
1000525c:	00000000 	nop
10005260:	27bd0010 	addiu	sp,sp,16
10005264:	03e00008 	jr	ra
10005268:	00000000 	nop

1000526c <send_byte>:
1000526c:	27bdffe8 	addiu	sp,sp,-24
10005270:	a3a40010 	sb	a0,16(sp)
10005274:	3c081f00 	lui	t0,0x1f00
10005278:	350800d0 	ori	t0,t0,0xd0
1000527c:	8d090000 	lw	t1,0(t0)
10005280:	312900ff 	andi	t1,t1,0xff
10005284:	00000000 	nop
10005288:	3c081f00 	lui	t0,0x1f00
1000528c:	350800d8 	ori	t0,t0,0xd8
10005290:	01284021 	addu	t0,t1,t0
10005294:	a1040000 	sb	a0,0(t0)
10005298:	00000000 	nop
1000529c:	3c081f00 	lui	t0,0x1f00
100052a0:	350800d0 	ori	t0,t0,0xd0
100052a4:	8d090000 	lw	t1,0(t0)
100052a8:	312900ff 	andi	t1,t1,0xff
100052ac:	00000000 	nop
100052b0:	25290001 	addiu	t1,t1,1
100052b4:	ad090000 	sw	t1,0(t0)
100052b8:	00000000 	nop
100052bc:	240800ff 	li	t0,255
100052c0:	0109482a 	slt	t1,t0,t1
100052c4:	11200005 	beqz	t1,100052dc <xyz>
100052c8:	00000000 	nop
100052cc:	3c081f00 	lui	t0,0x1f00
100052d0:	350800d0 	ori	t0,t0,0xd0
100052d4:	ad000000 	sw	zero,0(t0)
100052d8:	00000000 	nop

100052dc <xyz>:
100052dc:	00000000 	nop
100052e0:	27bd0018 	addiu	sp,sp,24
100052e4:	03e00008 	jr	ra
100052e8:	00000000 	nop

Disassembly of section .bss:

100052ec <diff>:
100052ec:	00000000 	nop

Disassembly of section .reginfo:

00000000 <.reginfo>:
   0:	a103ff1e 	sb	v1,-226(t0)
	...

Disassembly of section .pdr:

00000000 <.pdr>:
   0:	1000500c 	b	14034 <_start-0xfff0fcc>
   4:	80040000 	lb	a0,0(zero)
   8:	fffffff8 	0xfffffff8
	...
  14:	00000040 	sll	zero,zero,0x1
  18:	0000001d 	0x1d
  1c:	0000001f 	0x1f
  20:	10005128 	b	144c4 <_start-0xfff0b3c>
  24:	800c0000 	lb	t4,0(zero)
  28:	fffffffc 	0xfffffffc
	...
  34:	00000038 	0x38
  38:	0000001d 	0x1d
  3c:	0000001f 	0x1f
  40:	10005244 	b	14954 <_start-0xfff06ac>
  44:	00000000 	nop
	...
  54:	00000010 	mfhi	zero
  58:	0000001d 	0x1d
  5c:	0000001f 	0x1f
  60:	1000526c 	b	14a14 <_start-0xfff05ec>
  64:	00000000 	nop
	...
  74:	00000018 	mult	zero,zero
  78:	0000001d 	0x1d
  7c:	0000001f 	0x1f
