
r100M.elf:     file format elf32-bigmips


Disassembly of section .text:

10002000 <_start>:
10002000:	3c1d1000 	lui	sp,0x1000
10002004:	0c000803 	jal	1000200c <main>
10002008:	37bd5000 	ori	sp,sp,0x5000

1000200c <main>:
1000200c:	27bdffe0 	addiu	sp,sp,-32
10002010:	afa00010 	sw	zero,16(sp)
10002014:	3c081f00 	lui	t0,0x1f00
10002018:	350800b0 	ori	t0,t0,0xb0
1000201c:	3c091f00 	lui	t1,0x1f00
10002020:	352900b4 	ori	t1,t1,0xb4
10002024:	3c0a1f00 	lui	t2,0x1f00
10002028:	354a00c4 	ori	t2,t2,0xc4
1000202c:	3c0c1f00 	lui	t4,0x1f00
10002030:	358c00d0 	ori	t4,t4,0xd0
10002034:	3c0d1f00 	lui	t5,0x1f00
10002038:	35ad00d4 	ori	t5,t5,0xd4
1000203c:	240e0001 	li	t6,1
10002040:	3c0b1f00 	lui	t3,0x1f00
10002044:	356b00c8 	ori	t3,t3,0xc8
10002048:	ad000000 	sw	zero,0(t0)
1000204c:	ad200000 	sw	zero,0(t1)
10002050:	ad400000 	sw	zero,0(t2)
10002054:	ad6e0000 	sw	t6,0(t3)
10002058:	ad800000 	sw	zero,0(t4)
1000205c:	ada00000 	sw	zero,0(t5)
10002060:	40094800 	mfc0	t1,$9
10002064:	3c0102fa 	lui	at,0x2fa
10002068:	3421f080 	ori	at,at,0xf080
1000206c:	01214821 	addu	t1,t1,at
10002070:	40895800 	mtc0	t1,$11
10002074:	34088c01 	li	t0,0x8c01
10002078:	40886000 	mtc0	t0,c0_sr
1000207c:	24030072 	li	v1,114
10002080:	3c021f00 	lui	v0,0x1f00
10002084:	344200c0 	ori	v0,v0,0xc0
10002088:	90420000 	lbu	v0,0(v0)
1000208c:	00000000 	nop
10002090:	1443fffb 	bne	v0,v1,10002080 <main+0x74>
10002094:	00000000 	nop
10002098:	0c000800 	jal	10002000 <_start>
1000209c:	08000820 	j	10002080 <main+0x74>
100020a0:	00000000 	nop

100020a4 <r100M>:
100020a4:	3c0c1f00 	lui	t4,0x1f00
100020a8:	358c00b0 	ori	t4,t4,0xb0
100020ac:	8d8d0000 	lw	t5,0(t4)
100020b0:	8d8e0004 	lw	t6,4(t4)
100020b4:	00004020 	add	t0,zero,zero
100020b8:	3c0905f5 	lui	t1,0x5f5
100020bc:	3529e100 	ori	t1,t1,0xe100

100020c0 <loop>:
100020c0:	21080001 	addi	t0,t0,1
100020c4:	1509fffe 	bne	t0,t1,100020c0 <loop>
100020c8:	00000000 	nop
100020cc:	8d8f0000 	lw	t7,0(t4)
100020d0:	8d980004 	lw	t8,4(t4)
100020d4:	00000000 	nop
100020d8:	030e5022 	sub	t2,t8,t6
100020dc:	01ed5822 	sub	t3,t7,t5
100020e0:	00006020 	add	t4,zero,zero
100020e4:	01606820 	add	t5,t3,zero

100020e8 <dec_loop>:
100020e8:	25adfff6 	addiu	t5,t5,-10
100020ec:	05a00003 	bltz	t5,100020fc <end_dec_loop>
100020f0:	00000000 	nop
100020f4:	0800083a 	j	100020e8 <dec_loop>
100020f8:	258c0001 	addiu	t4,t4,1

100020fc <end_dec_loop>:
100020fc:	25ad000a 	addiu	t5,t5,10
10002100:	258c0030 	addiu	t4,t4,48
10002104:	0c00084f 	jal	1000213c <send_byte>
10002108:	25ad0030 	addiu	t5,t5,48
1000210c:	0c00084f 	jal	1000213c <send_byte>
10002110:	240a003a 	li	t2,58
10002114:	0c00084f 	jal	1000213c <send_byte>
10002118:	000c5020 	add	t2,zero,t4
1000211c:	0c00084f 	jal	1000213c <send_byte>
10002120:	000d5020 	add	t2,zero,t5
10002124:	0c00084f 	jal	1000213c <send_byte>
10002128:	240a003d 	li	t2,61
1000212c:	0c00084f 	jal	1000213c <send_byte>
10002130:	240a003a 	li	t2,58
10002134:	03e00008 	jr	ra
10002138:	00000000 	nop

1000213c <send_byte>:
1000213c:	3c081f00 	lui	t0,0x1f00
10002140:	350800d0 	ori	t0,t0,0xd0
10002144:	8d090000 	lw	t1,0(t0)
10002148:	3c081f00 	lui	t0,0x1f00
1000214c:	350800d8 	ori	t0,t0,0xd8
10002150:	01284021 	addu	t0,t1,t0
10002154:	a10a0000 	sb	t2,0(t0)
10002158:	3c081f00 	lui	t0,0x1f00
1000215c:	350800d0 	ori	t0,t0,0xd0
10002160:	8d090000 	lw	t1,0(t0)
10002164:	00000000 	nop
10002168:	25290001 	addiu	t1,t1,1
1000216c:	ad090000 	sw	t1,0(t0)
10002170:	24080014 	li	t0,20
10002174:	15090004 	bne	t0,t1,10002188 <xyz>
10002178:	00000000 	nop
1000217c:	3c081f00 	lui	t0,0x1f00
10002180:	350800d0 	ori	t0,t0,0xd0
10002184:	ad000000 	sw	zero,0(t0)

10002188 <xyz>:
10002188:	03e00008 	jr	ra
1000218c:	00000000 	nop

Disassembly of section .reginfo:

00000000 <.reginfo>:
   0:	a0007f0e 	sb	zero,32526(zero)
	...

Disassembly of section .pdr:

00000000 <.pdr>:
   0:	1000200c 	b	8034 <_start-0xfff9fcc>
   4:	00000000 	nop
	...
  14:	00000020 	add	zero,zero,zero
  18:	0000001d 	0x1d
  1c:	0000001f 	0x1f
